Archive member included to satisfy reference by file (symbol)

/home/konata/devel/libopencm3/lib/libopencm3_stm32f4.a(rcc.o)
                              ././drivers/system/clock.o (rcc_clock_setup_hse_3v3)
/home/konata/devel/libopencm3/lib/libopencm3_stm32f4.a(crc_common_all.o)
                              ././drivers/flash/otp_storage.o (crc_reset)
/home/konata/devel/libopencm3/lib/libopencm3_stm32f4.a(dma_common_f24.o)
                              ././drivers/display/display.o (dma_stream_reset)
/home/konata/devel/libopencm3/lib/libopencm3_stm32f4.a(gpio_common_all.o)
                              ././drivers/display/ts_tsc2007.o (gpio_set)
/home/konata/devel/libopencm3/lib/libopencm3_stm32f4.a(gpio_common_f0234.o)
                              ././drivers/display/ts_tsc2007.o (gpio_mode_setup)
/home/konata/devel/libopencm3/lib/libopencm3_stm32f4.a(i2c_common_v1.o)
                              ././drivers/i2c/i2c.o (i2c_reset)
/home/konata/devel/libopencm3/lib/libopencm3_stm32f4.a(spi_common_all.o)
                              ././drivers/display/display.o (spi_reset)
/home/konata/devel/libopencm3/lib/libopencm3_stm32f4.a(spi_common_l1f124.o)
                              ././drivers/display/display.o (spi_set_dff_8bit)
/home/konata/devel/libopencm3/lib/libopencm3_stm32f4.a(usart_common_all.o)
                              ././drivers/bluetooth/bt_usart.o (usart_set_baudrate)
/home/konata/devel/libopencm3/lib/libopencm3_stm32f4.a(usart_common_f124.o)
                              /home/konata/devel/libopencm3/lib/libopencm3_stm32f4.a(usart_common_all.o) (usart_send)
/home/konata/devel/libopencm3/lib/libopencm3_stm32f4.a(flash_common_f234.o)
                              /home/konata/devel/libopencm3/lib/libopencm3_stm32f4.a(rcc.o) (flash_set_ws)
/home/konata/devel/libopencm3/lib/libopencm3_stm32f4.a(flash_common_f24.o)
                              ././drivers/flash/otp_storage.o (flash_program)
/home/konata/devel/libopencm3/lib/libopencm3_stm32f4.a(exti_common_all.o)
                              ././drivers/display/ts_tsc2007.o (exti_set_trigger)
/home/konata/devel/libopencm3/lib/libopencm3_stm32f4.a(rcc_common_all.o)
                              ././drivers/system/clock.o (rcc_periph_clock_enable)
/home/konata/devel/libopencm3/lib/libopencm3_stm32f4.a(usb.o)
                              ././drivers/usb/mew_usb_hid.o (usbd_init)
/home/konata/devel/libopencm3/lib/libopencm3_stm32f4.a(usb_standard.o)
                              ././drivers/usb/mew_usb_hid.o (usbd_register_set_config_callback)
/home/konata/devel/libopencm3/lib/libopencm3_stm32f4.a(usb_control.o)
                              ././drivers/usb/mew_usb_hid.o (usbd_register_control_callback)
/home/konata/devel/libopencm3/lib/libopencm3_stm32f4.a(usb_f107.o)
                              ././drivers/usb/mew_usb_hid.o (stm32f107_usb_driver)
/home/konata/devel/libopencm3/lib/libopencm3_stm32f4.a(vector.o)
                              (reset_handler)
/home/konata/devel/libopencm3/lib/libopencm3_stm32f4.a(systick.o)
                              ././drivers/system/systick.o (systick_set_reload)
/home/konata/devel/libopencm3/lib/libopencm3_stm32f4.a(nvic.o)
                              ././drivers/display/ts_tsc2007.o (nvic_enable_irq)
/home/konata/devel/libopencm3/lib/libopencm3_stm32f4.a(pwr.o)
                              /home/konata/devel/libopencm3/lib/libopencm3_stm32f4.a(rcc.o) (pwr_set_vos_scale)
/home/konata/devel/libopencm3/lib/libopencm3_stm32f4.a(usb_fx07_common.o)
                              /home/konata/devel/libopencm3/lib/libopencm3_stm32f4.a(usb_f107.o) (stm32fx07_set_address)
/home/kaori/devel/stm32/gcc-arm-none-eabi-8-2018-q4-major/bin/../lib/gcc/arm-none-eabi/8.2.1/../../../../arm-none-eabi/lib/thumb/v7e-m+fp/hard/libc_nano.a(lib_a-malloc.o)
                              ././lvgl/lv_misc/lv_mem.o (malloc)
/home/kaori/devel/stm32/gcc-arm-none-eabi-8-2018-q4-major/bin/../lib/gcc/arm-none-eabi/8.2.1/../../../../arm-none-eabi/lib/thumb/v7e-m+fp/hard/libc_nano.a(lib_a-memcpy-stub.o)
                              ././drivers/hw_crypt/sha2_256.o (memcpy)
/home/kaori/devel/stm32/gcc-arm-none-eabi-8-2018-q4-major/bin/../lib/gcc/arm-none-eabi/8.2.1/../../../../arm-none-eabi/lib/thumb/v7e-m+fp/hard/libc_nano.a(lib_a-memset.o)
                              ././drivers/bluetooth/bt_usart.o (memset)
/home/kaori/devel/stm32/gcc-arm-none-eabi-8-2018-q4-major/bin/../lib/gcc/arm-none-eabi/8.2.1/../../../../arm-none-eabi/lib/thumb/v7e-m+fp/hard/libc_nano.a(lib_a-nano-freer.o)
                              /home/kaori/devel/stm32/gcc-arm-none-eabi-8-2018-q4-major/bin/../lib/gcc/arm-none-eabi/8.2.1/../../../../arm-none-eabi/lib/thumb/v7e-m+fp/hard/libc_nano.a(lib_a-malloc.o) (_free_r)
/home/kaori/devel/stm32/gcc-arm-none-eabi-8-2018-q4-major/bin/../lib/gcc/arm-none-eabi/8.2.1/../../../../arm-none-eabi/lib/thumb/v7e-m+fp/hard/libc_nano.a(lib_a-nano-mallocr.o)
                              /home/kaori/devel/stm32/gcc-arm-none-eabi-8-2018-q4-major/bin/../lib/gcc/arm-none-eabi/8.2.1/../../../../arm-none-eabi/lib/thumb/v7e-m+fp/hard/libc_nano.a(lib_a-malloc.o) (_malloc_r)
/home/kaori/devel/stm32/gcc-arm-none-eabi-8-2018-q4-major/bin/../lib/gcc/arm-none-eabi/8.2.1/../../../../arm-none-eabi/lib/thumb/v7e-m+fp/hard/libc_nano.a(lib_a-sbrkr.o)
                              /home/kaori/devel/stm32/gcc-arm-none-eabi-8-2018-q4-major/bin/../lib/gcc/arm-none-eabi/8.2.1/../../../../arm-none-eabi/lib/thumb/v7e-m+fp/hard/libc_nano.a(lib_a-nano-mallocr.o) (_sbrk_r)
/home/kaori/devel/stm32/gcc-arm-none-eabi-8-2018-q4-major/bin/../lib/gcc/arm-none-eabi/8.2.1/../../../../arm-none-eabi/lib/thumb/v7e-m+fp/hard/libc_nano.a(lib_a-strchr.o)
                              ././drivers/bluetooth/bt_usart.o (strchr)
/home/kaori/devel/stm32/gcc-arm-none-eabi-8-2018-q4-major/bin/../lib/gcc/arm-none-eabi/8.2.1/../../../../arm-none-eabi/lib/thumb/v7e-m+fp/hard/libc_nano.a(lib_a-strcmp.o)
                              ././ui/pinpad.o (strcmp)
/home/kaori/devel/stm32/gcc-arm-none-eabi-8-2018-q4-major/bin/../lib/gcc/arm-none-eabi/8.2.1/../../../../arm-none-eabi/lib/thumb/v7e-m+fp/hard/libc_nano.a(lib_a-strcpy.o)
                              ././lvgl/lv_objx/lv_img.o (strcpy)
/home/kaori/devel/stm32/gcc-arm-none-eabi-8-2018-q4-major/bin/../lib/gcc/arm-none-eabi/8.2.1/../../../../arm-none-eabi/lib/thumb/v7e-m+fp/hard/libc_nano.a(lib_a-strlen.o)
                              ././drivers/bluetooth/bt_usart.o (strlen)
/home/kaori/devel/stm32/gcc-arm-none-eabi-8-2018-q4-major/bin/../lib/gcc/arm-none-eabi/8.2.1/../../../../arm-none-eabi/lib/thumb/v7e-m+fp/hard/libc_nano.a(lib_a-strstr.o)
                              ././drivers/bluetooth/bt_usart.o (strstr)
/home/kaori/devel/stm32/gcc-arm-none-eabi-8-2018-q4-major/bin/../lib/gcc/arm-none-eabi/8.2.1/../../../../arm-none-eabi/lib/thumb/v7e-m+fp/hard/libc_nano.a(lib_a-impure.o)
                              /home/kaori/devel/stm32/gcc-arm-none-eabi-8-2018-q4-major/bin/../lib/gcc/arm-none-eabi/8.2.1/../../../../arm-none-eabi/lib/thumb/v7e-m+fp/hard/libc_nano.a(lib_a-malloc.o) (_impure_ptr)
/home/kaori/devel/stm32/gcc-arm-none-eabi-8-2018-q4-major/bin/../lib/gcc/arm-none-eabi/8.2.1/../../../../arm-none-eabi/lib/thumb/v7e-m+fp/hard/libc_nano.a(lib_a-mlock.o)
                              /home/kaori/devel/stm32/gcc-arm-none-eabi-8-2018-q4-major/bin/../lib/gcc/arm-none-eabi/8.2.1/../../../../arm-none-eabi/lib/thumb/v7e-m+fp/hard/libc_nano.a(lib_a-nano-freer.o) (__malloc_lock)
/home/kaori/devel/stm32/gcc-arm-none-eabi-8-2018-q4-major/bin/../lib/gcc/arm-none-eabi/8.2.1/../../../../arm-none-eabi/lib/thumb/v7e-m+fp/hard/libc_nano.a(lib_a-reent.o)
                              /home/kaori/devel/stm32/gcc-arm-none-eabi-8-2018-q4-major/bin/../lib/gcc/arm-none-eabi/8.2.1/../../../../arm-none-eabi/lib/thumb/v7e-m+fp/hard/libc_nano.a(lib_a-sbrkr.o) (errno)
/home/kaori/devel/stm32/gcc-arm-none-eabi-8-2018-q4-major/bin/../lib/gcc/arm-none-eabi/8.2.1/../../../../arm-none-eabi/lib/thumb/v7e-m+fp/hard/libc_nano.a(lib_a-lock.o)
                              /home/kaori/devel/stm32/gcc-arm-none-eabi-8-2018-q4-major/bin/../lib/gcc/arm-none-eabi/8.2.1/../../../../arm-none-eabi/lib/thumb/v7e-m+fp/hard/libc_nano.a(lib_a-mlock.o) (__retarget_lock_acquire_recursive)
/home/kaori/devel/stm32/gcc-arm-none-eabi-8-2018-q4-major/bin/../lib/gcc/arm-none-eabi/8.2.1/../../../../arm-none-eabi/lib/thumb/v7e-m+fp/hard/libnosys.a(sbrk.o)
                              /home/kaori/devel/stm32/gcc-arm-none-eabi-8-2018-q4-major/bin/../lib/gcc/arm-none-eabi/8.2.1/../../../../arm-none-eabi/lib/thumb/v7e-m+fp/hard/libc_nano.a(lib_a-sbrkr.o) (_sbrk)

Allocating common symbols
Common symbol       size              file

__lock___atexit_recursive_mutex
                    0x1               /home/kaori/devel/stm32/gcc-arm-none-eabi-8-2018-q4-major/bin/../lib/gcc/arm-none-eabi/8.2.1/../../../../arm-none-eabi/lib/thumb/v7e-m+fp/hard/libc_nano.a(lib_a-lock.o)
__lock___arc4random_mutex
                    0x1               /home/kaori/devel/stm32/gcc-arm-none-eabi-8-2018-q4-major/bin/../lib/gcc/arm-none-eabi/8.2.1/../../../../arm-none-eabi/lib/thumb/v7e-m+fp/hard/libc_nano.a(lib_a-lock.o)
errno               0x4               /home/kaori/devel/stm32/gcc-arm-none-eabi-8-2018-q4-major/bin/../lib/gcc/arm-none-eabi/8.2.1/../../../../arm-none-eabi/lib/thumb/v7e-m+fp/hard/libc_nano.a(lib_a-reent.o)
__lock___env_recursive_mutex
                    0x1               /home/kaori/devel/stm32/gcc-arm-none-eabi-8-2018-q4-major/bin/../lib/gcc/arm-none-eabi/8.2.1/../../../../arm-none-eabi/lib/thumb/v7e-m+fp/hard/libc_nano.a(lib_a-lock.o)
__lock___sinit_recursive_mutex
                    0x1               /home/kaori/devel/stm32/gcc-arm-none-eabi-8-2018-q4-major/bin/../lib/gcc/arm-none-eabi/8.2.1/../../../../arm-none-eabi/lib/thumb/v7e-m+fp/hard/libc_nano.a(lib_a-lock.o)
__lock___malloc_recursive_mutex
                    0x1               /home/kaori/devel/stm32/gcc-arm-none-eabi-8-2018-q4-major/bin/../lib/gcc/arm-none-eabi/8.2.1/../../../../arm-none-eabi/lib/thumb/v7e-m+fp/hard/libc_nano.a(lib_a-lock.o)
__lock___at_quick_exit_mutex
                    0x1               /home/kaori/devel/stm32/gcc-arm-none-eabi-8-2018-q4-major/bin/../lib/gcc/arm-none-eabi/8.2.1/../../../../arm-none-eabi/lib/thumb/v7e-m+fp/hard/libc_nano.a(lib_a-lock.o)
__lock___dd_hash_mutex
                    0x1               /home/kaori/devel/stm32/gcc-arm-none-eabi-8-2018-q4-major/bin/../lib/gcc/arm-none-eabi/8.2.1/../../../../arm-none-eabi/lib/thumb/v7e-m+fp/hard/libc_nano.a(lib_a-lock.o)
__lock___tz_mutex   0x1               /home/kaori/devel/stm32/gcc-arm-none-eabi-8-2018-q4-major/bin/../lib/gcc/arm-none-eabi/8.2.1/../../../../arm-none-eabi/lib/thumb/v7e-m+fp/hard/libc_nano.a(lib_a-lock.o)
__lock___sfp_recursive_mutex
                    0x1               /home/kaori/devel/stm32/gcc-arm-none-eabi-8-2018-q4-major/bin/../lib/gcc/arm-none-eabi/8.2.1/../../../../arm-none-eabi/lib/thumb/v7e-m+fp/hard/libc_nano.a(lib_a-lock.o)

Discarded input sections

 .group         0x0000000000000000        0x8 /home/konata/devel/libopencm3/lib/libopencm3_stm32f4.a(rcc.o)
 .group         0x0000000000000000        0x8 /home/konata/devel/libopencm3/lib/libopencm3_stm32f4.a(rcc.o)
 .group         0x0000000000000000        0x8 /home/konata/devel/libopencm3/lib/libopencm3_stm32f4.a(rcc.o)
 .group         0x0000000000000000        0x8 /home/konata/devel/libopencm3/lib/libopencm3_stm32f4.a(rcc.o)
 .group         0x0000000000000000        0x8 /home/konata/devel/libopencm3/lib/libopencm3_stm32f4.a(rcc.o)
 .group         0x0000000000000000        0x8 /home/konata/devel/libopencm3/lib/libopencm3_stm32f4.a(rcc.o)
 .group         0x0000000000000000        0x8 /home/konata/devel/libopencm3/lib/libopencm3_stm32f4.a(rcc.o)
 .group         0x0000000000000000        0x8 /home/konata/devel/libopencm3/lib/libopencm3_stm32f4.a(rcc.o)
 .group         0x0000000000000000        0x8 /home/konata/devel/libopencm3/lib/libopencm3_stm32f4.a(rcc.o)
 .group         0x0000000000000000        0x8 /home/konata/devel/libopencm3/lib/libopencm3_stm32f4.a(rcc.o)
 .group         0x0000000000000000        0x8 /home/konata/devel/libopencm3/lib/libopencm3_stm32f4.a(rcc.o)
 .group         0x0000000000000000        0x8 /home/konata/devel/libopencm3/lib/libopencm3_stm32f4.a(rcc.o)
 .group         0x0000000000000000        0x8 /home/konata/devel/libopencm3/lib/libopencm3_stm32f4.a(rcc.o)
 .group         0x0000000000000000        0x8 /home/konata/devel/libopencm3/lib/libopencm3_stm32f4.a(rcc.o)
 .group         0x0000000000000000        0x8 /home/konata/devel/libopencm3/lib/libopencm3_stm32f4.a(rcc.o)
 .group         0x0000000000000000        0x8 /home/konata/devel/libopencm3/lib/libopencm3_stm32f4.a(rcc.o)
 .group         0x0000000000000000        0x8 /home/konata/devel/libopencm3/lib/libopencm3_stm32f4.a(rcc.o)
 .group         0x0000000000000000        0x8 /home/konata/devel/libopencm3/lib/libopencm3_stm32f4.a(crc_common_all.o)
 .group         0x0000000000000000        0x8 /home/konata/devel/libopencm3/lib/libopencm3_stm32f4.a(crc_common_all.o)
 .group         0x0000000000000000        0x8 /home/konata/devel/libopencm3/lib/libopencm3_stm32f4.a(crc_common_all.o)
 .group         0x0000000000000000        0x8 /home/konata/devel/libopencm3/lib/libopencm3_stm32f4.a(crc_common_all.o)
 .group         0x0000000000000000        0x8 /home/konata/devel/libopencm3/lib/libopencm3_stm32f4.a(crc_common_all.o)
 .group         0x0000000000000000        0x8 /home/konata/devel/libopencm3/lib/libopencm3_stm32f4.a(crc_common_all.o)
 .group         0x0000000000000000        0x8 /home/konata/devel/libopencm3/lib/libopencm3_stm32f4.a(crc_common_all.o)
 .group         0x0000000000000000        0x8 /home/konata/devel/libopencm3/lib/libopencm3_stm32f4.a(crc_common_all.o)
 .group         0x0000000000000000        0x8 /home/konata/devel/libopencm3/lib/libopencm3_stm32f4.a(crc_common_all.o)
 .group         0x0000000000000000        0x8 /home/konata/devel/libopencm3/lib/libopencm3_stm32f4.a(crc_common_all.o)
 .group         0x0000000000000000        0x8 /home/konata/devel/libopencm3/lib/libopencm3_stm32f4.a(crc_common_all.o)
 .group         0x0000000000000000        0x8 /home/konata/devel/libopencm3/lib/libopencm3_stm32f4.a(crc_common_all.o)
 .debug_macro   0x0000000000000000      0x88c /home/konata/devel/libopencm3/lib/libopencm3_stm32f4.a(crc_common_all.o)
 .debug_macro   0x0000000000000000       0x22 /home/konata/devel/libopencm3/lib/libopencm3_stm32f4.a(crc_common_all.o)
 .debug_macro   0x0000000000000000       0x87 /home/konata/devel/libopencm3/lib/libopencm3_stm32f4.a(crc_common_all.o)
 .debug_macro   0x0000000000000000       0x44 /home/konata/devel/libopencm3/lib/libopencm3_stm32f4.a(crc_common_all.o)
 .debug_macro   0x0000000000000000       0xfd /home/konata/devel/libopencm3/lib/libopencm3_stm32f4.a(crc_common_all.o)
 .debug_macro   0x0000000000000000       0x5e /home/konata/devel/libopencm3/lib/libopencm3_stm32f4.a(crc_common_all.o)
 .debug_macro   0x0000000000000000      0x1df /home/konata/devel/libopencm3/lib/libopencm3_stm32f4.a(crc_common_all.o)
 .debug_macro   0x0000000000000000       0x22 /home/konata/devel/libopencm3/lib/libopencm3_stm32f4.a(crc_common_all.o)
 .debug_macro   0x0000000000000000       0xfa /home/konata/devel/libopencm3/lib/libopencm3_stm32f4.a(crc_common_all.o)
 .debug_macro   0x0000000000000000       0x58 /home/konata/devel/libopencm3/lib/libopencm3_stm32f4.a(crc_common_all.o)
 .debug_macro   0x0000000000000000      0x26d /home/konata/devel/libopencm3/lib/libopencm3_stm32f4.a(crc_common_all.o)
 .group         0x0000000000000000        0x8 /home/konata/devel/libopencm3/lib/libopencm3_stm32f4.a(dma_common_f24.o)
 .group         0x0000000000000000        0x8 /home/konata/devel/libopencm3/lib/libopencm3_stm32f4.a(dma_common_f24.o)
 .group         0x0000000000000000        0x8 /home/konata/devel/libopencm3/lib/libopencm3_stm32f4.a(dma_common_f24.o)
 .group         0x0000000000000000        0x8 /home/konata/devel/libopencm3/lib/libopencm3_stm32f4.a(dma_common_f24.o)
 .group         0x0000000000000000        0x8 /home/konata/devel/libopencm3/lib/libopencm3_stm32f4.a(dma_common_f24.o)
 .group         0x0000000000000000        0x8 /home/konata/devel/libopencm3/lib/libopencm3_stm32f4.a(dma_common_f24.o)
 .group         0x0000000000000000        0x8 /home/konata/devel/libopencm3/lib/libopencm3_stm32f4.a(dma_common_f24.o)
 .group         0x0000000000000000        0x8 /home/konata/devel/libopencm3/lib/libopencm3_stm32f4.a(dma_common_f24.o)
 .group         0x0000000000000000        0x8 /home/konata/devel/libopencm3/lib/libopencm3_stm32f4.a(dma_common_f24.o)
 .group         0x0000000000000000        0x8 /home/konata/devel/libopencm3/lib/libopencm3_stm32f4.a(dma_common_f24.o)
 .group         0x0000000000000000        0x8 /home/konata/devel/libopencm3/lib/libopencm3_stm32f4.a(dma_common_f24.o)
 .group         0x0000000000000000        0x8 /home/konata/devel/libopencm3/lib/libopencm3_stm32f4.a(dma_common_f24.o)
 .debug_macro   0x0000000000000000      0x88c /home/konata/devel/libopencm3/lib/libopencm3_stm32f4.a(dma_common_f24.o)
 .debug_macro   0x0000000000000000       0x22 /home/konata/devel/libopencm3/lib/libopencm3_stm32f4.a(dma_common_f24.o)
 .debug_macro   0x0000000000000000       0x87 /home/konata/devel/libopencm3/lib/libopencm3_stm32f4.a(dma_common_f24.o)
 .debug_macro   0x0000000000000000       0x44 /home/konata/devel/libopencm3/lib/libopencm3_stm32f4.a(dma_common_f24.o)
 .debug_macro   0x0000000000000000       0xfd /home/konata/devel/libopencm3/lib/libopencm3_stm32f4.a(dma_common_f24.o)
 .debug_macro   0x0000000000000000       0x5e /home/konata/devel/libopencm3/lib/libopencm3_stm32f4.a(dma_common_f24.o)
 .debug_macro   0x0000000000000000      0x1df /home/konata/devel/libopencm3/lib/libopencm3_stm32f4.a(dma_common_f24.o)
 .debug_macro   0x0000000000000000       0x22 /home/konata/devel/libopencm3/lib/libopencm3_stm32f4.a(dma_common_f24.o)
 .debug_macro   0x0000000000000000       0xfa /home/konata/devel/libopencm3/lib/libopencm3_stm32f4.a(dma_common_f24.o)
 .debug_macro   0x0000000000000000       0x58 /home/konata/devel/libopencm3/lib/libopencm3_stm32f4.a(dma_common_f24.o)
 .debug_macro   0x0000000000000000      0x26d /home/konata/devel/libopencm3/lib/libopencm3_stm32f4.a(dma_common_f24.o)
 .group         0x0000000000000000        0x8 /home/konata/devel/libopencm3/lib/libopencm3_stm32f4.a(gpio_common_all.o)
 .group         0x0000000000000000        0x8 /home/konata/devel/libopencm3/lib/libopencm3_stm32f4.a(gpio_common_all.o)
 .group         0x0000000000000000        0x8 /home/konata/devel/libopencm3/lib/libopencm3_stm32f4.a(gpio_common_all.o)
 .group         0x0000000000000000        0x8 /home/konata/devel/libopencm3/lib/libopencm3_stm32f4.a(gpio_common_all.o)
 .group         0x0000000000000000        0x8 /home/konata/devel/libopencm3/lib/libopencm3_stm32f4.a(gpio_common_all.o)
 .group         0x0000000000000000        0x8 /home/konata/devel/libopencm3/lib/libopencm3_stm32f4.a(gpio_common_all.o)
 .group         0x0000000000000000        0x8 /home/konata/devel/libopencm3/lib/libopencm3_stm32f4.a(gpio_common_all.o)
 .group         0x0000000000000000        0x8 /home/konata/devel/libopencm3/lib/libopencm3_stm32f4.a(gpio_common_all.o)
 .group         0x0000000000000000        0x8 /home/konata/devel/libopencm3/lib/libopencm3_stm32f4.a(gpio_common_all.o)
 .group         0x0000000000000000        0x8 /home/konata/devel/libopencm3/lib/libopencm3_stm32f4.a(gpio_common_all.o)
 .group         0x0000000000000000        0x8 /home/konata/devel/libopencm3/lib/libopencm3_stm32f4.a(gpio_common_all.o)
 .group         0x0000000000000000        0x8 /home/konata/devel/libopencm3/lib/libopencm3_stm32f4.a(gpio_common_all.o)
 .group         0x0000000000000000        0x8 /home/konata/devel/libopencm3/lib/libopencm3_stm32f4.a(gpio_common_all.o)
 .group         0x0000000000000000        0x8 /home/konata/devel/libopencm3/lib/libopencm3_stm32f4.a(gpio_common_all.o)
 .debug_macro   0x0000000000000000      0x88c /home/konata/devel/libopencm3/lib/libopencm3_stm32f4.a(gpio_common_all.o)
 .debug_macro   0x0000000000000000       0x22 /home/konata/devel/libopencm3/lib/libopencm3_stm32f4.a(gpio_common_all.o)
 .debug_macro   0x0000000000000000       0x87 /home/konata/devel/libopencm3/lib/libopencm3_stm32f4.a(gpio_common_all.o)
 .debug_macro   0x0000000000000000       0x44 /home/konata/devel/libopencm3/lib/libopencm3_stm32f4.a(gpio_common_all.o)
 .debug_macro   0x0000000000000000       0xfd /home/konata/devel/libopencm3/lib/libopencm3_stm32f4.a(gpio_common_all.o)
 .debug_macro   0x0000000000000000       0x5e /home/konata/devel/libopencm3/lib/libopencm3_stm32f4.a(gpio_common_all.o)
 .debug_macro   0x0000000000000000      0x1df /home/konata/devel/libopencm3/lib/libopencm3_stm32f4.a(gpio_common_all.o)
 .debug_macro   0x0000000000000000       0x22 /home/konata/devel/libopencm3/lib/libopencm3_stm32f4.a(gpio_common_all.o)
 .debug_macro   0x0000000000000000       0xfa /home/konata/devel/libopencm3/lib/libopencm3_stm32f4.a(gpio_common_all.o)
 .debug_macro   0x0000000000000000       0x58 /home/konata/devel/libopencm3/lib/libopencm3_stm32f4.a(gpio_common_all.o)
 .debug_macro   0x0000000000000000      0x26d /home/konata/devel/libopencm3/lib/libopencm3_stm32f4.a(gpio_common_all.o)
 .group         0x0000000000000000        0x8 /home/konata/devel/libopencm3/lib/libopencm3_stm32f4.a(gpio_common_f0234.o)
 .group         0x0000000000000000        0x8 /home/konata/devel/libopencm3/lib/libopencm3_stm32f4.a(gpio_common_f0234.o)
 .group         0x0000000000000000        0x8 /home/konata/devel/libopencm3/lib/libopencm3_stm32f4.a(gpio_common_f0234.o)
 .group         0x0000000000000000        0x8 /home/konata/devel/libopencm3/lib/libopencm3_stm32f4.a(gpio_common_f0234.o)
 .group         0x0000000000000000        0x8 /home/konata/devel/libopencm3/lib/libopencm3_stm32f4.a(gpio_common_f0234.o)
 .group         0x0000000000000000        0x8 /home/konata/devel/libopencm3/lib/libopencm3_stm32f4.a(gpio_common_f0234.o)
 .group         0x0000000000000000        0x8 /home/konata/devel/libopencm3/lib/libopencm3_stm32f4.a(gpio_common_f0234.o)
 .group         0x0000000000000000        0x8 /home/konata/devel/libopencm3/lib/libopencm3_stm32f4.a(gpio_common_f0234.o)
 .group         0x0000000000000000        0x8 /home/konata/devel/libopencm3/lib/libopencm3_stm32f4.a(gpio_common_f0234.o)
 .group         0x0000000000000000        0x8 /home/konata/devel/libopencm3/lib/libopencm3_stm32f4.a(gpio_common_f0234.o)
 .group         0x0000000000000000        0x8 /home/konata/devel/libopencm3/lib/libopencm3_stm32f4.a(gpio_common_f0234.o)
 .group         0x0000000000000000        0x8 /home/konata/devel/libopencm3/lib/libopencm3_stm32f4.a(gpio_common_f0234.o)
 .group         0x0000000000000000        0x8 /home/konata/devel/libopencm3/lib/libopencm3_stm32f4.a(gpio_common_f0234.o)
 .group         0x0000000000000000        0x8 /home/konata/devel/libopencm3/lib/libopencm3_stm32f4.a(gpio_common_f0234.o)
 .debug_macro   0x0000000000000000      0x88c /home/konata/devel/libopencm3/lib/libopencm3_stm32f4.a(gpio_common_f0234.o)
 .debug_macro   0x0000000000000000       0x22 /home/konata/devel/libopencm3/lib/libopencm3_stm32f4.a(gpio_common_f0234.o)
 .debug_macro   0x0000000000000000       0x87 /home/konata/devel/libopencm3/lib/libopencm3_stm32f4.a(gpio_common_f0234.o)
 .debug_macro   0x0000000000000000       0x44 /home/konata/devel/libopencm3/lib/libopencm3_stm32f4.a(gpio_common_f0234.o)
 .debug_macro   0x0000000000000000       0xfd /home/konata/devel/libopencm3/lib/libopencm3_stm32f4.a(gpio_common_f0234.o)
 .debug_macro   0x0000000000000000       0x5e /home/konata/devel/libopencm3/lib/libopencm3_stm32f4.a(gpio_common_f0234.o)
 .debug_macro   0x0000000000000000      0x1df /home/konata/devel/libopencm3/lib/libopencm3_stm32f4.a(gpio_common_f0234.o)
 .debug_macro   0x0000000000000000       0x22 /home/konata/devel/libopencm3/lib/libopencm3_stm32f4.a(gpio_common_f0234.o)
 .debug_macro   0x0000000000000000       0xfa /home/konata/devel/libopencm3/lib/libopencm3_stm32f4.a(gpio_common_f0234.o)
 .debug_macro   0x0000000000000000       0x58 /home/konata/devel/libopencm3/lib/libopencm3_stm32f4.a(gpio_common_f0234.o)
 .debug_macro   0x0000000000000000      0x26d /home/konata/devel/libopencm3/lib/libopencm3_stm32f4.a(gpio_common_f0234.o)
 .debug_macro   0x0000000000000000       0x76 /home/konata/devel/libopencm3/lib/libopencm3_stm32f4.a(gpio_common_f0234.o)
 .debug_macro   0x0000000000000000      0x2e6 /home/konata/devel/libopencm3/lib/libopencm3_stm32f4.a(gpio_common_f0234.o)
 .debug_macro   0x0000000000000000      0x14e /home/konata/devel/libopencm3/lib/libopencm3_stm32f4.a(gpio_common_f0234.o)
 .group         0x0000000000000000        0x8 /home/konata/devel/libopencm3/lib/libopencm3_stm32f4.a(i2c_common_v1.o)
 .group         0x0000000000000000        0x8 /home/konata/devel/libopencm3/lib/libopencm3_stm32f4.a(i2c_common_v1.o)
 .group         0x0000000000000000        0x8 /home/konata/devel/libopencm3/lib/libopencm3_stm32f4.a(i2c_common_v1.o)
 .group         0x0000000000000000        0x8 /home/konata/devel/libopencm3/lib/libopencm3_stm32f4.a(i2c_common_v1.o)
 .group         0x0000000000000000        0x8 /home/konata/devel/libopencm3/lib/libopencm3_stm32f4.a(i2c_common_v1.o)
 .group         0x0000000000000000        0x8 /home/konata/devel/libopencm3/lib/libopencm3_stm32f4.a(i2c_common_v1.o)
 .group         0x0000000000000000        0x8 /home/konata/devel/libopencm3/lib/libopencm3_stm32f4.a(i2c_common_v1.o)
 .group         0x0000000000000000        0x8 /home/konata/devel/libopencm3/lib/libopencm3_stm32f4.a(i2c_common_v1.o)
 .group         0x0000000000000000        0x8 /home/konata/devel/libopencm3/lib/libopencm3_stm32f4.a(i2c_common_v1.o)
 .group         0x0000000000000000        0x8 /home/konata/devel/libopencm3/lib/libopencm3_stm32f4.a(i2c_common_v1.o)
 .group         0x0000000000000000        0x8 /home/konata/devel/libopencm3/lib/libopencm3_stm32f4.a(i2c_common_v1.o)
 .group         0x0000000000000000        0x8 /home/konata/devel/libopencm3/lib/libopencm3_stm32f4.a(i2c_common_v1.o)
 .group         0x0000000000000000        0x8 /home/konata/devel/libopencm3/lib/libopencm3_stm32f4.a(i2c_common_v1.o)
 .group         0x0000000000000000        0x8 /home/konata/devel/libopencm3/lib/libopencm3_stm32f4.a(i2c_common_v1.o)
 .debug_macro   0x0000000000000000      0x88c /home/konata/devel/libopencm3/lib/libopencm3_stm32f4.a(i2c_common_v1.o)
 .debug_macro   0x0000000000000000       0x22 /home/konata/devel/libopencm3/lib/libopencm3_stm32f4.a(i2c_common_v1.o)
 .debug_macro   0x0000000000000000       0x87 /home/konata/devel/libopencm3/lib/libopencm3_stm32f4.a(i2c_common_v1.o)
 .debug_macro   0x0000000000000000       0x44 /home/konata/devel/libopencm3/lib/libopencm3_stm32f4.a(i2c_common_v1.o)
 .debug_macro   0x0000000000000000       0xfd /home/konata/devel/libopencm3/lib/libopencm3_stm32f4.a(i2c_common_v1.o)
 .debug_macro   0x0000000000000000       0x5e /home/konata/devel/libopencm3/lib/libopencm3_stm32f4.a(i2c_common_v1.o)
 .debug_macro   0x0000000000000000      0x1df /home/konata/devel/libopencm3/lib/libopencm3_stm32f4.a(i2c_common_v1.o)
 .debug_macro   0x0000000000000000       0x22 /home/konata/devel/libopencm3/lib/libopencm3_stm32f4.a(i2c_common_v1.o)
 .debug_macro   0x0000000000000000       0xfa /home/konata/devel/libopencm3/lib/libopencm3_stm32f4.a(i2c_common_v1.o)
 .debug_macro   0x0000000000000000       0x58 /home/konata/devel/libopencm3/lib/libopencm3_stm32f4.a(i2c_common_v1.o)
 .debug_macro   0x0000000000000000      0x26d /home/konata/devel/libopencm3/lib/libopencm3_stm32f4.a(i2c_common_v1.o)
 .debug_macro   0x0000000000000000      0xb3f /home/konata/devel/libopencm3/lib/libopencm3_stm32f4.a(i2c_common_v1.o)
 .group         0x0000000000000000        0x8 /home/konata/devel/libopencm3/lib/libopencm3_stm32f4.a(spi_common_all.o)
 .group         0x0000000000000000        0x8 /home/konata/devel/libopencm3/lib/libopencm3_stm32f4.a(spi_common_all.o)
 .group         0x0000000000000000        0x8 /home/konata/devel/libopencm3/lib/libopencm3_stm32f4.a(spi_common_all.o)
 .group         0x0000000000000000        0x8 /home/konata/devel/libopencm3/lib/libopencm3_stm32f4.a(spi_common_all.o)
 .group         0x0000000000000000        0x8 /home/konata/devel/libopencm3/lib/libopencm3_stm32f4.a(spi_common_all.o)
 .group         0x0000000000000000        0x8 /home/konata/devel/libopencm3/lib/libopencm3_stm32f4.a(spi_common_all.o)
 .group         0x0000000000000000        0x8 /home/konata/devel/libopencm3/lib/libopencm3_stm32f4.a(spi_common_all.o)
 .group         0x0000000000000000        0x8 /home/konata/devel/libopencm3/lib/libopencm3_stm32f4.a(spi_common_all.o)
 .group         0x0000000000000000        0x8 /home/konata/devel/libopencm3/lib/libopencm3_stm32f4.a(spi_common_all.o)
 .group         0x0000000000000000        0x8 /home/konata/devel/libopencm3/lib/libopencm3_stm32f4.a(spi_common_all.o)
 .group         0x0000000000000000        0x8 /home/konata/devel/libopencm3/lib/libopencm3_stm32f4.a(spi_common_all.o)
 .group         0x0000000000000000        0x8 /home/konata/devel/libopencm3/lib/libopencm3_stm32f4.a(spi_common_all.o)
 .group         0x0000000000000000        0x8 /home/konata/devel/libopencm3/lib/libopencm3_stm32f4.a(spi_common_all.o)
 .group         0x0000000000000000        0x8 /home/konata/devel/libopencm3/lib/libopencm3_stm32f4.a(spi_common_all.o)
 .group         0x0000000000000000        0x8 /home/konata/devel/libopencm3/lib/libopencm3_stm32f4.a(spi_common_all.o)
 .debug_macro   0x0000000000000000      0x88c /home/konata/devel/libopencm3/lib/libopencm3_stm32f4.a(spi_common_all.o)
 .debug_macro   0x0000000000000000       0x22 /home/konata/devel/libopencm3/lib/libopencm3_stm32f4.a(spi_common_all.o)
 .debug_macro   0x0000000000000000       0x87 /home/konata/devel/libopencm3/lib/libopencm3_stm32f4.a(spi_common_all.o)
 .debug_macro   0x0000000000000000       0x44 /home/konata/devel/libopencm3/lib/libopencm3_stm32f4.a(spi_common_all.o)
 .debug_macro   0x0000000000000000       0xfd /home/konata/devel/libopencm3/lib/libopencm3_stm32f4.a(spi_common_all.o)
 .debug_macro   0x0000000000000000       0x5e /home/konata/devel/libopencm3/lib/libopencm3_stm32f4.a(spi_common_all.o)
 .debug_macro   0x0000000000000000      0x1df /home/konata/devel/libopencm3/lib/libopencm3_stm32f4.a(spi_common_all.o)
 .debug_macro   0x0000000000000000       0x22 /home/konata/devel/libopencm3/lib/libopencm3_stm32f4.a(spi_common_all.o)
 .debug_macro   0x0000000000000000       0xfa /home/konata/devel/libopencm3/lib/libopencm3_stm32f4.a(spi_common_all.o)
 .debug_macro   0x0000000000000000       0x58 /home/konata/devel/libopencm3/lib/libopencm3_stm32f4.a(spi_common_all.o)
 .debug_macro   0x0000000000000000      0x26d /home/konata/devel/libopencm3/lib/libopencm3_stm32f4.a(spi_common_all.o)
 .debug_macro   0x0000000000000000      0xb3f /home/konata/devel/libopencm3/lib/libopencm3_stm32f4.a(spi_common_all.o)
 .group         0x0000000000000000        0x8 /home/konata/devel/libopencm3/lib/libopencm3_stm32f4.a(spi_common_l1f124.o)
 .group         0x0000000000000000        0x8 /home/konata/devel/libopencm3/lib/libopencm3_stm32f4.a(spi_common_l1f124.o)
 .group         0x0000000000000000        0x8 /home/konata/devel/libopencm3/lib/libopencm3_stm32f4.a(spi_common_l1f124.o)
 .group         0x0000000000000000        0x8 /home/konata/devel/libopencm3/lib/libopencm3_stm32f4.a(spi_common_l1f124.o)
 .group         0x0000000000000000        0x8 /home/konata/devel/libopencm3/lib/libopencm3_stm32f4.a(spi_common_l1f124.o)
 .group         0x0000000000000000        0x8 /home/konata/devel/libopencm3/lib/libopencm3_stm32f4.a(spi_common_l1f124.o)
 .group         0x0000000000000000        0x8 /home/konata/devel/libopencm3/lib/libopencm3_stm32f4.a(spi_common_l1f124.o)
 .group         0x0000000000000000        0x8 /home/konata/devel/libopencm3/lib/libopencm3_stm32f4.a(spi_common_l1f124.o)
 .group         0x0000000000000000        0x8 /home/konata/devel/libopencm3/lib/libopencm3_stm32f4.a(spi_common_l1f124.o)
 .group         0x0000000000000000        0x8 /home/konata/devel/libopencm3/lib/libopencm3_stm32f4.a(spi_common_l1f124.o)
 .group         0x0000000000000000        0x8 /home/konata/devel/libopencm3/lib/libopencm3_stm32f4.a(spi_common_l1f124.o)
 .group         0x0000000000000000        0x8 /home/konata/devel/libopencm3/lib/libopencm3_stm32f4.a(spi_common_l1f124.o)
 .group         0x0000000000000000        0x8 /home/konata/devel/libopencm3/lib/libopencm3_stm32f4.a(spi_common_l1f124.o)
 .group         0x0000000000000000        0x8 /home/konata/devel/libopencm3/lib/libopencm3_stm32f4.a(spi_common_l1f124.o)
 .group         0x0000000000000000        0x8 /home/konata/devel/libopencm3/lib/libopencm3_stm32f4.a(spi_common_l1f124.o)
 .debug_macro   0x0000000000000000      0x88c /home/konata/devel/libopencm3/lib/libopencm3_stm32f4.a(spi_common_l1f124.o)
 .debug_macro   0x0000000000000000       0x22 /home/konata/devel/libopencm3/lib/libopencm3_stm32f4.a(spi_common_l1f124.o)
 .debug_macro   0x0000000000000000       0x87 /home/konata/devel/libopencm3/lib/libopencm3_stm32f4.a(spi_common_l1f124.o)
 .debug_macro   0x0000000000000000       0x44 /home/konata/devel/libopencm3/lib/libopencm3_stm32f4.a(spi_common_l1f124.o)
 .debug_macro   0x0000000000000000       0xfd /home/konata/devel/libopencm3/lib/libopencm3_stm32f4.a(spi_common_l1f124.o)
 .debug_macro   0x0000000000000000       0x5e /home/konata/devel/libopencm3/lib/libopencm3_stm32f4.a(spi_common_l1f124.o)
 .debug_macro   0x0000000000000000      0x1df /home/konata/devel/libopencm3/lib/libopencm3_stm32f4.a(spi_common_l1f124.o)
 .debug_macro   0x0000000000000000       0x22 /home/konata/devel/libopencm3/lib/libopencm3_stm32f4.a(spi_common_l1f124.o)
 .debug_macro   0x0000000000000000       0xfa /home/konata/devel/libopencm3/lib/libopencm3_stm32f4.a(spi_common_l1f124.o)
 .debug_macro   0x0000000000000000       0x58 /home/konata/devel/libopencm3/lib/libopencm3_stm32f4.a(spi_common_l1f124.o)
 .debug_macro   0x0000000000000000      0x26d /home/konata/devel/libopencm3/lib/libopencm3_stm32f4.a(spi_common_l1f124.o)
 .debug_macro   0x0000000000000000      0x2eb /home/konata/devel/libopencm3/lib/libopencm3_stm32f4.a(spi_common_l1f124.o)
 .debug_macro   0x0000000000000000       0x16 /home/konata/devel/libopencm3/lib/libopencm3_stm32f4.a(spi_common_l1f124.o)
 .debug_macro   0x0000000000000000       0x1c /home/konata/devel/libopencm3/lib/libopencm3_stm32f4.a(spi_common_l1f124.o)
 .debug_macro   0x0000000000000000      0xb3f /home/konata/devel/libopencm3/lib/libopencm3_stm32f4.a(spi_common_l1f124.o)
 .group         0x0000000000000000        0x8 /home/konata/devel/libopencm3/lib/libopencm3_stm32f4.a(usart_common_all.o)
 .group         0x0000000000000000        0x8 /home/konata/devel/libopencm3/lib/libopencm3_stm32f4.a(usart_common_all.o)
 .group         0x0000000000000000        0x8 /home/konata/devel/libopencm3/lib/libopencm3_stm32f4.a(usart_common_all.o)
 .group         0x0000000000000000        0x8 /home/konata/devel/libopencm3/lib/libopencm3_stm32f4.a(usart_common_all.o)
 .group         0x0000000000000000        0x8 /home/konata/devel/libopencm3/lib/libopencm3_stm32f4.a(usart_common_all.o)
 .group         0x0000000000000000        0x8 /home/konata/devel/libopencm3/lib/libopencm3_stm32f4.a(usart_common_all.o)
 .group         0x0000000000000000        0x8 /home/konata/devel/libopencm3/lib/libopencm3_stm32f4.a(usart_common_all.o)
 .group         0x0000000000000000        0x8 /home/konata/devel/libopencm3/lib/libopencm3_stm32f4.a(usart_common_all.o)
 .group         0x0000000000000000        0x8 /home/konata/devel/libopencm3/lib/libopencm3_stm32f4.a(usart_common_all.o)
 .group         0x0000000000000000        0x8 /home/konata/devel/libopencm3/lib/libopencm3_stm32f4.a(usart_common_all.o)
 .group         0x0000000000000000        0x8 /home/konata/devel/libopencm3/lib/libopencm3_stm32f4.a(usart_common_all.o)
 .group         0x0000000000000000        0x8 /home/konata/devel/libopencm3/lib/libopencm3_stm32f4.a(usart_common_all.o)
 .group         0x0000000000000000        0x8 /home/konata/devel/libopencm3/lib/libopencm3_stm32f4.a(usart_common_all.o)
 .group         0x0000000000000000        0x8 /home/konata/devel/libopencm3/lib/libopencm3_stm32f4.a(usart_common_all.o)
 .group         0x0000000000000000        0x8 /home/konata/devel/libopencm3/lib/libopencm3_stm32f4.a(usart_common_all.o)
 .debug_macro   0x0000000000000000      0x88c /home/konata/devel/libopencm3/lib/libopencm3_stm32f4.a(usart_common_all.o)
 .debug_macro   0x0000000000000000       0x22 /home/konata/devel/libopencm3/lib/libopencm3_stm32f4.a(usart_common_all.o)
 .debug_macro   0x0000000000000000       0x87 /home/konata/devel/libopencm3/lib/libopencm3_stm32f4.a(usart_common_all.o)
 .debug_macro   0x0000000000000000       0x44 /home/konata/devel/libopencm3/lib/libopencm3_stm32f4.a(usart_common_all.o)
 .debug_macro   0x0000000000000000       0xfd /home/konata/devel/libopencm3/lib/libopencm3_stm32f4.a(usart_common_all.o)
 .debug_macro   0x0000000000000000       0x5e /home/konata/devel/libopencm3/lib/libopencm3_stm32f4.a(usart_common_all.o)
 .debug_macro   0x0000000000000000      0x1df /home/konata/devel/libopencm3/lib/libopencm3_stm32f4.a(usart_common_all.o)
 .debug_macro   0x0000000000000000       0x22 /home/konata/devel/libopencm3/lib/libopencm3_stm32f4.a(usart_common_all.o)
 .debug_macro   0x0000000000000000       0xfa /home/konata/devel/libopencm3/lib/libopencm3_stm32f4.a(usart_common_all.o)
 .debug_macro   0x0000000000000000       0x58 /home/konata/devel/libopencm3/lib/libopencm3_stm32f4.a(usart_common_all.o)
 .debug_macro   0x0000000000000000      0x26d /home/konata/devel/libopencm3/lib/libopencm3_stm32f4.a(usart_common_all.o)
 .debug_macro   0x0000000000000000      0xb3f /home/konata/devel/libopencm3/lib/libopencm3_stm32f4.a(usart_common_all.o)
 .group         0x0000000000000000        0x8 /home/konata/devel/libopencm3/lib/libopencm3_stm32f4.a(usart_common_f124.o)
 .group         0x0000000000000000        0x8 /home/konata/devel/libopencm3/lib/libopencm3_stm32f4.a(usart_common_f124.o)
 .group         0x0000000000000000        0x8 /home/konata/devel/libopencm3/lib/libopencm3_stm32f4.a(usart_common_f124.o)
 .group         0x0000000000000000        0x8 /home/konata/devel/libopencm3/lib/libopencm3_stm32f4.a(usart_common_f124.o)
 .group         0x0000000000000000        0x8 /home/konata/devel/libopencm3/lib/libopencm3_stm32f4.a(usart_common_f124.o)
 .group         0x0000000000000000        0x8 /home/konata/devel/libopencm3/lib/libopencm3_stm32f4.a(usart_common_f124.o)
 .group         0x0000000000000000        0x8 /home/konata/devel/libopencm3/lib/libopencm3_stm32f4.a(usart_common_f124.o)
 .group         0x0000000000000000        0x8 /home/konata/devel/libopencm3/lib/libopencm3_stm32f4.a(usart_common_f124.o)
 .group         0x0000000000000000        0x8 /home/konata/devel/libopencm3/lib/libopencm3_stm32f4.a(usart_common_f124.o)
 .group         0x0000000000000000        0x8 /home/konata/devel/libopencm3/lib/libopencm3_stm32f4.a(usart_common_f124.o)
 .group         0x0000000000000000        0x8 /home/konata/devel/libopencm3/lib/libopencm3_stm32f4.a(usart_common_f124.o)
 .group         0x0000000000000000        0x8 /home/konata/devel/libopencm3/lib/libopencm3_stm32f4.a(usart_common_f124.o)
 .group         0x0000000000000000        0x8 /home/konata/devel/libopencm3/lib/libopencm3_stm32f4.a(usart_common_f124.o)
 .group         0x0000000000000000        0x8 /home/konata/devel/libopencm3/lib/libopencm3_stm32f4.a(usart_common_f124.o)
 .group         0x0000000000000000        0x8 /home/konata/devel/libopencm3/lib/libopencm3_stm32f4.a(usart_common_f124.o)
 .debug_macro   0x0000000000000000      0x88c /home/konata/devel/libopencm3/lib/libopencm3_stm32f4.a(usart_common_f124.o)
 .debug_macro   0x0000000000000000       0x22 /home/konata/devel/libopencm3/lib/libopencm3_stm32f4.a(usart_common_f124.o)
 .debug_macro   0x0000000000000000       0x87 /home/konata/devel/libopencm3/lib/libopencm3_stm32f4.a(usart_common_f124.o)
 .debug_macro   0x0000000000000000       0x44 /home/konata/devel/libopencm3/lib/libopencm3_stm32f4.a(usart_common_f124.o)
 .debug_macro   0x0000000000000000       0xfd /home/konata/devel/libopencm3/lib/libopencm3_stm32f4.a(usart_common_f124.o)
 .debug_macro   0x0000000000000000       0x5e /home/konata/devel/libopencm3/lib/libopencm3_stm32f4.a(usart_common_f124.o)
 .debug_macro   0x0000000000000000      0x1df /home/konata/devel/libopencm3/lib/libopencm3_stm32f4.a(usart_common_f124.o)
 .debug_macro   0x0000000000000000       0x22 /home/konata/devel/libopencm3/lib/libopencm3_stm32f4.a(usart_common_f124.o)
 .debug_macro   0x0000000000000000       0xfa /home/konata/devel/libopencm3/lib/libopencm3_stm32f4.a(usart_common_f124.o)
 .debug_macro   0x0000000000000000       0x58 /home/konata/devel/libopencm3/lib/libopencm3_stm32f4.a(usart_common_f124.o)
 .debug_macro   0x0000000000000000      0x26d /home/konata/devel/libopencm3/lib/libopencm3_stm32f4.a(usart_common_f124.o)
 .debug_macro   0x0000000000000000       0x8e /home/konata/devel/libopencm3/lib/libopencm3_stm32f4.a(usart_common_f124.o)
 .debug_macro   0x0000000000000000      0x273 /home/konata/devel/libopencm3/lib/libopencm3_stm32f4.a(usart_common_f124.o)
 .debug_macro   0x0000000000000000       0xa0 /home/konata/devel/libopencm3/lib/libopencm3_stm32f4.a(usart_common_f124.o)
 .debug_macro   0x0000000000000000      0xb3f /home/konata/devel/libopencm3/lib/libopencm3_stm32f4.a(usart_common_f124.o)
 .group         0x0000000000000000        0x8 /home/konata/devel/libopencm3/lib/libopencm3_stm32f4.a(flash_common_f234.o)
 .group         0x0000000000000000        0x8 /home/konata/devel/libopencm3/lib/libopencm3_stm32f4.a(flash_common_f234.o)
 .group         0x0000000000000000        0x8 /home/konata/devel/libopencm3/lib/libopencm3_stm32f4.a(flash_common_f234.o)
 .group         0x0000000000000000        0x8 /home/konata/devel/libopencm3/lib/libopencm3_stm32f4.a(flash_common_f234.o)
 .group         0x0000000000000000        0x8 /home/konata/devel/libopencm3/lib/libopencm3_stm32f4.a(flash_common_f234.o)
 .group         0x0000000000000000        0x8 /home/konata/devel/libopencm3/lib/libopencm3_stm32f4.a(flash_common_f234.o)
 .group         0x0000000000000000        0x8 /home/konata/devel/libopencm3/lib/libopencm3_stm32f4.a(flash_common_f234.o)
 .group         0x0000000000000000        0x8 /home/konata/devel/libopencm3/lib/libopencm3_stm32f4.a(flash_common_f234.o)
 .group         0x0000000000000000        0x8 /home/konata/devel/libopencm3/lib/libopencm3_stm32f4.a(flash_common_f234.o)
 .group         0x0000000000000000        0x8 /home/konata/devel/libopencm3/lib/libopencm3_stm32f4.a(flash_common_f234.o)
 .group         0x0000000000000000        0x8 /home/konata/devel/libopencm3/lib/libopencm3_stm32f4.a(flash_common_f234.o)
 .group         0x0000000000000000        0x8 /home/konata/devel/libopencm3/lib/libopencm3_stm32f4.a(flash_common_f234.o)
 .group         0x0000000000000000        0x8 /home/konata/devel/libopencm3/lib/libopencm3_stm32f4.a(flash_common_f234.o)
 .debug_macro   0x0000000000000000      0x88c /home/konata/devel/libopencm3/lib/libopencm3_stm32f4.a(flash_common_f234.o)
 .debug_macro   0x0000000000000000       0x22 /home/konata/devel/libopencm3/lib/libopencm3_stm32f4.a(flash_common_f234.o)
 .debug_macro   0x0000000000000000       0x87 /home/konata/devel/libopencm3/lib/libopencm3_stm32f4.a(flash_common_f234.o)
 .debug_macro   0x0000000000000000       0x44 /home/konata/devel/libopencm3/lib/libopencm3_stm32f4.a(flash_common_f234.o)
 .debug_macro   0x0000000000000000       0xfd /home/konata/devel/libopencm3/lib/libopencm3_stm32f4.a(flash_common_f234.o)
 .debug_macro   0x0000000000000000       0x5e /home/konata/devel/libopencm3/lib/libopencm3_stm32f4.a(flash_common_f234.o)
 .debug_macro   0x0000000000000000      0x1df /home/konata/devel/libopencm3/lib/libopencm3_stm32f4.a(flash_common_f234.o)
 .debug_macro   0x0000000000000000       0x22 /home/konata/devel/libopencm3/lib/libopencm3_stm32f4.a(flash_common_f234.o)
 .debug_macro   0x0000000000000000       0xfa /home/konata/devel/libopencm3/lib/libopencm3_stm32f4.a(flash_common_f234.o)
 .debug_macro   0x0000000000000000       0x58 /home/konata/devel/libopencm3/lib/libopencm3_stm32f4.a(flash_common_f234.o)
 .debug_macro   0x0000000000000000      0x26d /home/konata/devel/libopencm3/lib/libopencm3_stm32f4.a(flash_common_f234.o)
 .debug_macro   0x0000000000000000       0x6a /home/konata/devel/libopencm3/lib/libopencm3_stm32f4.a(flash_common_f234.o)
 .debug_macro   0x0000000000000000       0xf4 /home/konata/devel/libopencm3/lib/libopencm3_stm32f4.a(flash_common_f234.o)
 .group         0x0000000000000000        0x8 /home/konata/devel/libopencm3/lib/libopencm3_stm32f4.a(flash_common_f24.o)
 .group         0x0000000000000000        0x8 /home/konata/devel/libopencm3/lib/libopencm3_stm32f4.a(flash_common_f24.o)
 .group         0x0000000000000000        0x8 /home/konata/devel/libopencm3/lib/libopencm3_stm32f4.a(flash_common_f24.o)
 .group         0x0000000000000000        0x8 /home/konata/devel/libopencm3/lib/libopencm3_stm32f4.a(flash_common_f24.o)
 .group         0x0000000000000000        0x8 /home/konata/devel/libopencm3/lib/libopencm3_stm32f4.a(flash_common_f24.o)
 .group         0x0000000000000000        0x8 /home/konata/devel/libopencm3/lib/libopencm3_stm32f4.a(flash_common_f24.o)
 .group         0x0000000000000000        0x8 /home/konata/devel/libopencm3/lib/libopencm3_stm32f4.a(flash_common_f24.o)
 .group         0x0000000000000000        0x8 /home/konata/devel/libopencm3/lib/libopencm3_stm32f4.a(flash_common_f24.o)
 .group         0x0000000000000000        0x8 /home/konata/devel/libopencm3/lib/libopencm3_stm32f4.a(flash_common_f24.o)
 .group         0x0000000000000000        0x8 /home/konata/devel/libopencm3/lib/libopencm3_stm32f4.a(flash_common_f24.o)
 .group         0x0000000000000000        0x8 /home/konata/devel/libopencm3/lib/libopencm3_stm32f4.a(flash_common_f24.o)
 .group         0x0000000000000000        0x8 /home/konata/devel/libopencm3/lib/libopencm3_stm32f4.a(flash_common_f24.o)
 .group         0x0000000000000000        0x8 /home/konata/devel/libopencm3/lib/libopencm3_stm32f4.a(flash_common_f24.o)
 .debug_macro   0x0000000000000000      0x88c /home/konata/devel/libopencm3/lib/libopencm3_stm32f4.a(flash_common_f24.o)
 .debug_macro   0x0000000000000000       0x22 /home/konata/devel/libopencm3/lib/libopencm3_stm32f4.a(flash_common_f24.o)
 .debug_macro   0x0000000000000000       0x87 /home/konata/devel/libopencm3/lib/libopencm3_stm32f4.a(flash_common_f24.o)
 .debug_macro   0x0000000000000000       0x44 /home/konata/devel/libopencm3/lib/libopencm3_stm32f4.a(flash_common_f24.o)
 .debug_macro   0x0000000000000000       0xfd /home/konata/devel/libopencm3/lib/libopencm3_stm32f4.a(flash_common_f24.o)
 .debug_macro   0x0000000000000000       0x5e /home/konata/devel/libopencm3/lib/libopencm3_stm32f4.a(flash_common_f24.o)
 .debug_macro   0x0000000000000000      0x1df /home/konata/devel/libopencm3/lib/libopencm3_stm32f4.a(flash_common_f24.o)
 .debug_macro   0x0000000000000000       0x22 /home/konata/devel/libopencm3/lib/libopencm3_stm32f4.a(flash_common_f24.o)
 .debug_macro   0x0000000000000000       0xfa /home/konata/devel/libopencm3/lib/libopencm3_stm32f4.a(flash_common_f24.o)
 .debug_macro   0x0000000000000000       0x58 /home/konata/devel/libopencm3/lib/libopencm3_stm32f4.a(flash_common_f24.o)
 .debug_macro   0x0000000000000000      0x26d /home/konata/devel/libopencm3/lib/libopencm3_stm32f4.a(flash_common_f24.o)
 .debug_macro   0x0000000000000000       0x6a /home/konata/devel/libopencm3/lib/libopencm3_stm32f4.a(flash_common_f24.o)
 .debug_macro   0x0000000000000000       0xf4 /home/konata/devel/libopencm3/lib/libopencm3_stm32f4.a(flash_common_f24.o)
 .group         0x0000000000000000        0x8 /home/konata/devel/libopencm3/lib/libopencm3_stm32f4.a(exti_common_all.o)
 .group         0x0000000000000000        0x8 /home/konata/devel/libopencm3/lib/libopencm3_stm32f4.a(exti_common_all.o)
 .group         0x0000000000000000        0x8 /home/konata/devel/libopencm3/lib/libopencm3_stm32f4.a(exti_common_all.o)
 .group         0x0000000000000000        0x8 /home/konata/devel/libopencm3/lib/libopencm3_stm32f4.a(exti_common_all.o)
 .group         0x0000000000000000        0x8 /home/konata/devel/libopencm3/lib/libopencm3_stm32f4.a(exti_common_all.o)
 .group         0x0000000000000000        0x8 /home/konata/devel/libopencm3/lib/libopencm3_stm32f4.a(exti_common_all.o)
 .group         0x0000000000000000        0x8 /home/konata/devel/libopencm3/lib/libopencm3_stm32f4.a(exti_common_all.o)
 .group         0x0000000000000000        0x8 /home/konata/devel/libopencm3/lib/libopencm3_stm32f4.a(exti_common_all.o)
 .group         0x0000000000000000        0x8 /home/konata/devel/libopencm3/lib/libopencm3_stm32f4.a(exti_common_all.o)
 .group         0x0000000000000000        0x8 /home/konata/devel/libopencm3/lib/libopencm3_stm32f4.a(exti_common_all.o)
 .group         0x0000000000000000        0x8 /home/konata/devel/libopencm3/lib/libopencm3_stm32f4.a(exti_common_all.o)
 .group         0x0000000000000000        0x8 /home/konata/devel/libopencm3/lib/libopencm3_stm32f4.a(exti_common_all.o)
 .group         0x0000000000000000        0x8 /home/konata/devel/libopencm3/lib/libopencm3_stm32f4.a(exti_common_all.o)
 .group         0x0000000000000000        0x8 /home/konata/devel/libopencm3/lib/libopencm3_stm32f4.a(exti_common_all.o)
 .group         0x0000000000000000        0x8 /home/konata/devel/libopencm3/lib/libopencm3_stm32f4.a(exti_common_all.o)
 .group         0x0000000000000000        0x8 /home/konata/devel/libopencm3/lib/libopencm3_stm32f4.a(exti_common_all.o)
 .debug_macro   0x0000000000000000      0x88c /home/konata/devel/libopencm3/lib/libopencm3_stm32f4.a(exti_common_all.o)
 .debug_macro   0x0000000000000000       0x22 /home/konata/devel/libopencm3/lib/libopencm3_stm32f4.a(exti_common_all.o)
 .debug_macro   0x0000000000000000       0x87 /home/konata/devel/libopencm3/lib/libopencm3_stm32f4.a(exti_common_all.o)
 .debug_macro   0x0000000000000000       0x44 /home/konata/devel/libopencm3/lib/libopencm3_stm32f4.a(exti_common_all.o)
 .debug_macro   0x0000000000000000       0xfd /home/konata/devel/libopencm3/lib/libopencm3_stm32f4.a(exti_common_all.o)
 .debug_macro   0x0000000000000000       0x5e /home/konata/devel/libopencm3/lib/libopencm3_stm32f4.a(exti_common_all.o)
 .debug_macro   0x0000000000000000      0x1df /home/konata/devel/libopencm3/lib/libopencm3_stm32f4.a(exti_common_all.o)
 .debug_macro   0x0000000000000000       0x22 /home/konata/devel/libopencm3/lib/libopencm3_stm32f4.a(exti_common_all.o)
 .debug_macro   0x0000000000000000       0xfa /home/konata/devel/libopencm3/lib/libopencm3_stm32f4.a(exti_common_all.o)
 .debug_macro   0x0000000000000000       0x58 /home/konata/devel/libopencm3/lib/libopencm3_stm32f4.a(exti_common_all.o)
 .debug_macro   0x0000000000000000      0x26d /home/konata/devel/libopencm3/lib/libopencm3_stm32f4.a(exti_common_all.o)
 .debug_macro   0x0000000000000000       0x76 /home/konata/devel/libopencm3/lib/libopencm3_stm32f4.a(exti_common_all.o)
 .debug_macro   0x0000000000000000      0x2e6 /home/konata/devel/libopencm3/lib/libopencm3_stm32f4.a(exti_common_all.o)
 .debug_macro   0x0000000000000000      0x14e /home/konata/devel/libopencm3/lib/libopencm3_stm32f4.a(exti_common_all.o)
 .group         0x0000000000000000        0x8 /home/konata/devel/libopencm3/lib/libopencm3_stm32f4.a(rcc_common_all.o)
 .group         0x0000000000000000        0x8 /home/konata/devel/libopencm3/lib/libopencm3_stm32f4.a(rcc_common_all.o)
 .group         0x0000000000000000        0x8 /home/konata/devel/libopencm3/lib/libopencm3_stm32f4.a(rcc_common_all.o)
 .group         0x0000000000000000        0x8 /home/konata/devel/libopencm3/lib/libopencm3_stm32f4.a(rcc_common_all.o)
 .group         0x0000000000000000        0x8 /home/konata/devel/libopencm3/lib/libopencm3_stm32f4.a(rcc_common_all.o)
 .group         0x0000000000000000        0x8 /home/konata/devel/libopencm3/lib/libopencm3_stm32f4.a(rcc_common_all.o)
 .group         0x0000000000000000        0x8 /home/konata/devel/libopencm3/lib/libopencm3_stm32f4.a(rcc_common_all.o)
 .group         0x0000000000000000        0x8 /home/konata/devel/libopencm3/lib/libopencm3_stm32f4.a(rcc_common_all.o)
 .group         0x0000000000000000        0x8 /home/konata/devel/libopencm3/lib/libopencm3_stm32f4.a(rcc_common_all.o)
 .group         0x0000000000000000        0x8 /home/konata/devel/libopencm3/lib/libopencm3_stm32f4.a(rcc_common_all.o)
 .group         0x0000000000000000        0x8 /home/konata/devel/libopencm3/lib/libopencm3_stm32f4.a(rcc_common_all.o)
 .group         0x0000000000000000        0x8 /home/konata/devel/libopencm3/lib/libopencm3_stm32f4.a(rcc_common_all.o)
 .debug_macro   0x0000000000000000      0x88c /home/konata/devel/libopencm3/lib/libopencm3_stm32f4.a(rcc_common_all.o)
 .debug_macro   0x0000000000000000       0x22 /home/konata/devel/libopencm3/lib/libopencm3_stm32f4.a(rcc_common_all.o)
 .debug_macro   0x0000000000000000       0x87 /home/konata/devel/libopencm3/lib/libopencm3_stm32f4.a(rcc_common_all.o)
 .debug_macro   0x0000000000000000       0x44 /home/konata/devel/libopencm3/lib/libopencm3_stm32f4.a(rcc_common_all.o)
 .debug_macro   0x0000000000000000       0xfd /home/konata/devel/libopencm3/lib/libopencm3_stm32f4.a(rcc_common_all.o)
 .debug_macro   0x0000000000000000       0x5e /home/konata/devel/libopencm3/lib/libopencm3_stm32f4.a(rcc_common_all.o)
 .debug_macro   0x0000000000000000      0x1df /home/konata/devel/libopencm3/lib/libopencm3_stm32f4.a(rcc_common_all.o)
 .debug_macro   0x0000000000000000       0x22 /home/konata/devel/libopencm3/lib/libopencm3_stm32f4.a(rcc_common_all.o)
 .debug_macro   0x0000000000000000       0xfa /home/konata/devel/libopencm3/lib/libopencm3_stm32f4.a(rcc_common_all.o)
 .debug_macro   0x0000000000000000       0x58 /home/konata/devel/libopencm3/lib/libopencm3_stm32f4.a(rcc_common_all.o)
 .debug_macro   0x0000000000000000      0x26d /home/konata/devel/libopencm3/lib/libopencm3_stm32f4.a(rcc_common_all.o)
 .debug_macro   0x0000000000000000      0xb3f /home/konata/devel/libopencm3/lib/libopencm3_stm32f4.a(rcc_common_all.o)
 .group         0x0000000000000000        0x8 /home/konata/devel/libopencm3/lib/libopencm3_stm32f4.a(usb.o)
 .group         0x0000000000000000        0x8 /home/konata/devel/libopencm3/lib/libopencm3_stm32f4.a(usb.o)
 .group         0x0000000000000000        0x8 /home/konata/devel/libopencm3/lib/libopencm3_stm32f4.a(usb.o)
 .group         0x0000000000000000        0x8 /home/konata/devel/libopencm3/lib/libopencm3_stm32f4.a(usb.o)
 .group         0x0000000000000000        0x8 /home/konata/devel/libopencm3/lib/libopencm3_stm32f4.a(usb.o)
 .group         0x0000000000000000        0x8 /home/konata/devel/libopencm3/lib/libopencm3_stm32f4.a(usb.o)
 .group         0x0000000000000000        0x8 /home/konata/devel/libopencm3/lib/libopencm3_stm32f4.a(usb.o)
 .group         0x0000000000000000        0x8 /home/konata/devel/libopencm3/lib/libopencm3_stm32f4.a(usb.o)
 .group         0x0000000000000000        0x8 /home/konata/devel/libopencm3/lib/libopencm3_stm32f4.a(usb.o)
 .group         0x0000000000000000        0x8 /home/konata/devel/libopencm3/lib/libopencm3_stm32f4.a(usb.o)
 .group         0x0000000000000000        0x8 /home/konata/devel/libopencm3/lib/libopencm3_stm32f4.a(usb.o)
 .group         0x0000000000000000        0x8 /home/konata/devel/libopencm3/lib/libopencm3_stm32f4.a(usb.o)
 .group         0x0000000000000000        0x8 /home/konata/devel/libopencm3/lib/libopencm3_stm32f4.a(usb.o)
 .group         0x0000000000000000        0x8 /home/konata/devel/libopencm3/lib/libopencm3_stm32f4.a(usb.o)
 .group         0x0000000000000000        0x8 /home/konata/devel/libopencm3/lib/libopencm3_stm32f4.a(usb.o)
 .group         0x0000000000000000        0x8 /home/konata/devel/libopencm3/lib/libopencm3_stm32f4.a(usb.o)
 .group         0x0000000000000000        0x8 /home/konata/devel/libopencm3/lib/libopencm3_stm32f4.a(usb.o)
 .group         0x0000000000000000        0x8 /home/konata/devel/libopencm3/lib/libopencm3_stm32f4.a(usb.o)
 .group         0x0000000000000000        0x8 /home/konata/devel/libopencm3/lib/libopencm3_stm32f4.a(usb.o)
 .group         0x0000000000000000        0x8 /home/konata/devel/libopencm3/lib/libopencm3_stm32f4.a(usb.o)
 .group         0x0000000000000000        0x8 /home/konata/devel/libopencm3/lib/libopencm3_stm32f4.a(usb.o)
 .group         0x0000000000000000        0x8 /home/konata/devel/libopencm3/lib/libopencm3_stm32f4.a(usb.o)
 .group         0x0000000000000000        0x8 /home/konata/devel/libopencm3/lib/libopencm3_stm32f4.a(usb.o)
 .group         0x0000000000000000        0x8 /home/konata/devel/libopencm3/lib/libopencm3_stm32f4.a(usb.o)
 .debug_macro   0x0000000000000000      0x88c /home/konata/devel/libopencm3/lib/libopencm3_stm32f4.a(usb.o)
 .debug_macro   0x0000000000000000       0x22 /home/konata/devel/libopencm3/lib/libopencm3_stm32f4.a(usb.o)
 .debug_macro   0x0000000000000000      0x174 /home/konata/devel/libopencm3/lib/libopencm3_stm32f4.a(usb.o)
 .debug_macro   0x0000000000000000       0xfd /home/konata/devel/libopencm3/lib/libopencm3_stm32f4.a(usb.o)
 .debug_macro   0x0000000000000000       0x5e /home/konata/devel/libopencm3/lib/libopencm3_stm32f4.a(usb.o)
 .debug_macro   0x0000000000000000      0x1df /home/konata/devel/libopencm3/lib/libopencm3_stm32f4.a(usb.o)
 .debug_macro   0x0000000000000000       0x22 /home/konata/devel/libopencm3/lib/libopencm3_stm32f4.a(usb.o)
 .debug_macro   0x0000000000000000       0xfa /home/konata/devel/libopencm3/lib/libopencm3_stm32f4.a(usb.o)
 .group         0x0000000000000000        0x8 /home/konata/devel/libopencm3/lib/libopencm3_stm32f4.a(usb_standard.o)
 .group         0x0000000000000000        0x8 /home/konata/devel/libopencm3/lib/libopencm3_stm32f4.a(usb_standard.o)
 .group         0x0000000000000000        0x8 /home/konata/devel/libopencm3/lib/libopencm3_stm32f4.a(usb_standard.o)
 .group         0x0000000000000000        0x8 /home/konata/devel/libopencm3/lib/libopencm3_stm32f4.a(usb_standard.o)
 .group         0x0000000000000000        0x8 /home/konata/devel/libopencm3/lib/libopencm3_stm32f4.a(usb_standard.o)
 .group         0x0000000000000000        0x8 /home/konata/devel/libopencm3/lib/libopencm3_stm32f4.a(usb_standard.o)
 .group         0x0000000000000000        0x8 /home/konata/devel/libopencm3/lib/libopencm3_stm32f4.a(usb_standard.o)
 .group         0x0000000000000000        0x8 /home/konata/devel/libopencm3/lib/libopencm3_stm32f4.a(usb_standard.o)
 .group         0x0000000000000000        0x8 /home/konata/devel/libopencm3/lib/libopencm3_stm32f4.a(usb_standard.o)
 .group         0x0000000000000000        0x8 /home/konata/devel/libopencm3/lib/libopencm3_stm32f4.a(usb_standard.o)
 .group         0x0000000000000000        0x8 /home/konata/devel/libopencm3/lib/libopencm3_stm32f4.a(usb_standard.o)
 .group         0x0000000000000000        0x8 /home/konata/devel/libopencm3/lib/libopencm3_stm32f4.a(usb_standard.o)
 .group         0x0000000000000000        0x8 /home/konata/devel/libopencm3/lib/libopencm3_stm32f4.a(usb_standard.o)
 .group         0x0000000000000000        0x8 /home/konata/devel/libopencm3/lib/libopencm3_stm32f4.a(usb_standard.o)
 .group         0x0000000000000000        0x8 /home/konata/devel/libopencm3/lib/libopencm3_stm32f4.a(usb_standard.o)
 .group         0x0000000000000000        0x8 /home/konata/devel/libopencm3/lib/libopencm3_stm32f4.a(usb_standard.o)
 .group         0x0000000000000000        0x8 /home/konata/devel/libopencm3/lib/libopencm3_stm32f4.a(usb_standard.o)
 .group         0x0000000000000000        0x8 /home/konata/devel/libopencm3/lib/libopencm3_stm32f4.a(usb_standard.o)
 .group         0x0000000000000000        0x8 /home/konata/devel/libopencm3/lib/libopencm3_stm32f4.a(usb_standard.o)
 .group         0x0000000000000000        0x8 /home/konata/devel/libopencm3/lib/libopencm3_stm32f4.a(usb_standard.o)
 .group         0x0000000000000000        0x8 /home/konata/devel/libopencm3/lib/libopencm3_stm32f4.a(usb_standard.o)
 .group         0x0000000000000000        0x8 /home/konata/devel/libopencm3/lib/libopencm3_stm32f4.a(usb_standard.o)
 .group         0x0000000000000000        0x8 /home/konata/devel/libopencm3/lib/libopencm3_stm32f4.a(usb_standard.o)
 .group         0x0000000000000000        0x8 /home/konata/devel/libopencm3/lib/libopencm3_stm32f4.a(usb_standard.o)
 .debug_macro   0x0000000000000000      0x88c /home/konata/devel/libopencm3/lib/libopencm3_stm32f4.a(usb_standard.o)
 .debug_macro   0x0000000000000000       0x22 /home/konata/devel/libopencm3/lib/libopencm3_stm32f4.a(usb_standard.o)
 .debug_macro   0x0000000000000000       0x4c /home/konata/devel/libopencm3/lib/libopencm3_stm32f4.a(usb_standard.o)
 .debug_macro   0x0000000000000000       0x8d /home/konata/devel/libopencm3/lib/libopencm3_stm32f4.a(usb_standard.o)
 .debug_macro   0x0000000000000000       0x35 /home/konata/devel/libopencm3/lib/libopencm3_stm32f4.a(usb_standard.o)
 .debug_macro   0x0000000000000000       0x9c /home/konata/devel/libopencm3/lib/libopencm3_stm32f4.a(usb_standard.o)
 .debug_macro   0x0000000000000000      0x174 /home/konata/devel/libopencm3/lib/libopencm3_stm32f4.a(usb_standard.o)
 .debug_macro   0x0000000000000000       0x4a /home/konata/devel/libopencm3/lib/libopencm3_stm32f4.a(usb_standard.o)
 .debug_macro   0x0000000000000000       0x52 /home/konata/devel/libopencm3/lib/libopencm3_stm32f4.a(usb_standard.o)
 .debug_macro   0x0000000000000000       0x1f /home/konata/devel/libopencm3/lib/libopencm3_stm32f4.a(usb_standard.o)
 .debug_macro   0x0000000000000000       0x43 /home/konata/devel/libopencm3/lib/libopencm3_stm32f4.a(usb_standard.o)
 .debug_macro   0x0000000000000000       0x20 /home/konata/devel/libopencm3/lib/libopencm3_stm32f4.a(usb_standard.o)
 .debug_macro   0x0000000000000000      0x187 /home/konata/devel/libopencm3/lib/libopencm3_stm32f4.a(usb_standard.o)
 .debug_macro   0x0000000000000000      0x30d /home/konata/devel/libopencm3/lib/libopencm3_stm32f4.a(usb_standard.o)
 .debug_macro   0x0000000000000000       0x10 /home/konata/devel/libopencm3/lib/libopencm3_stm32f4.a(usb_standard.o)
 .debug_macro   0x0000000000000000       0x35 /home/konata/devel/libopencm3/lib/libopencm3_stm32f4.a(usb_standard.o)
 .debug_macro   0x0000000000000000       0xfd /home/konata/devel/libopencm3/lib/libopencm3_stm32f4.a(usb_standard.o)
 .debug_macro   0x0000000000000000       0x5e /home/konata/devel/libopencm3/lib/libopencm3_stm32f4.a(usb_standard.o)
 .debug_macro   0x0000000000000000      0x1df /home/konata/devel/libopencm3/lib/libopencm3_stm32f4.a(usb_standard.o)
 .debug_macro   0x0000000000000000       0x22 /home/konata/devel/libopencm3/lib/libopencm3_stm32f4.a(usb_standard.o)
 .debug_macro   0x0000000000000000       0xfa /home/konata/devel/libopencm3/lib/libopencm3_stm32f4.a(usb_standard.o)
 .debug_macro   0x0000000000000000      0x196 /home/konata/devel/libopencm3/lib/libopencm3_stm32f4.a(usb_standard.o)
 .debug_macro   0x0000000000000000       0x10 /home/konata/devel/libopencm3/lib/libopencm3_stm32f4.a(usb_standard.o)
 .debug_macro   0x0000000000000000       0x1c /home/konata/devel/libopencm3/lib/libopencm3_stm32f4.a(usb_standard.o)
 .group         0x0000000000000000        0x8 /home/konata/devel/libopencm3/lib/libopencm3_stm32f4.a(usb_control.o)
 .group         0x0000000000000000        0x8 /home/konata/devel/libopencm3/lib/libopencm3_stm32f4.a(usb_control.o)
 .group         0x0000000000000000        0x8 /home/konata/devel/libopencm3/lib/libopencm3_stm32f4.a(usb_control.o)
 .group         0x0000000000000000        0x8 /home/konata/devel/libopencm3/lib/libopencm3_stm32f4.a(usb_control.o)
 .group         0x0000000000000000        0x8 /home/konata/devel/libopencm3/lib/libopencm3_stm32f4.a(usb_control.o)
 .group         0x0000000000000000        0x8 /home/konata/devel/libopencm3/lib/libopencm3_stm32f4.a(usb_control.o)
 .group         0x0000000000000000        0x8 /home/konata/devel/libopencm3/lib/libopencm3_stm32f4.a(usb_control.o)
 .group         0x0000000000000000        0x8 /home/konata/devel/libopencm3/lib/libopencm3_stm32f4.a(usb_control.o)
 .group         0x0000000000000000        0x8 /home/konata/devel/libopencm3/lib/libopencm3_stm32f4.a(usb_control.o)
 .group         0x0000000000000000        0x8 /home/konata/devel/libopencm3/lib/libopencm3_stm32f4.a(usb_control.o)
 .group         0x0000000000000000        0x8 /home/konata/devel/libopencm3/lib/libopencm3_stm32f4.a(usb_control.o)
 .group         0x0000000000000000        0x8 /home/konata/devel/libopencm3/lib/libopencm3_stm32f4.a(usb_control.o)
 .group         0x0000000000000000        0x8 /home/konata/devel/libopencm3/lib/libopencm3_stm32f4.a(usb_control.o)
 .group         0x0000000000000000        0x8 /home/konata/devel/libopencm3/lib/libopencm3_stm32f4.a(usb_control.o)
 .group         0x0000000000000000        0x8 /home/konata/devel/libopencm3/lib/libopencm3_stm32f4.a(usb_control.o)
 .group         0x0000000000000000        0x8 /home/konata/devel/libopencm3/lib/libopencm3_stm32f4.a(usb_control.o)
 .group         0x0000000000000000        0x8 /home/konata/devel/libopencm3/lib/libopencm3_stm32f4.a(usb_control.o)
 .group         0x0000000000000000        0x8 /home/konata/devel/libopencm3/lib/libopencm3_stm32f4.a(usb_control.o)
 .group         0x0000000000000000        0x8 /home/konata/devel/libopencm3/lib/libopencm3_stm32f4.a(usb_control.o)
 .group         0x0000000000000000        0x8 /home/konata/devel/libopencm3/lib/libopencm3_stm32f4.a(usb_control.o)
 .group         0x0000000000000000        0x8 /home/konata/devel/libopencm3/lib/libopencm3_stm32f4.a(usb_control.o)
 .group         0x0000000000000000        0x8 /home/konata/devel/libopencm3/lib/libopencm3_stm32f4.a(usb_control.o)
 .group         0x0000000000000000        0x8 /home/konata/devel/libopencm3/lib/libopencm3_stm32f4.a(usb_control.o)
 .group         0x0000000000000000        0x8 /home/konata/devel/libopencm3/lib/libopencm3_stm32f4.a(usb_control.o)
 .group         0x0000000000000000        0x8 /home/konata/devel/libopencm3/lib/libopencm3_stm32f4.a(usb_control.o)
 .group         0x0000000000000000        0x8 /home/konata/devel/libopencm3/lib/libopencm3_stm32f4.a(usb_control.o)
 .debug_macro   0x0000000000000000      0x88c /home/konata/devel/libopencm3/lib/libopencm3_stm32f4.a(usb_control.o)
 .debug_macro   0x0000000000000000       0x22 /home/konata/devel/libopencm3/lib/libopencm3_stm32f4.a(usb_control.o)
 .debug_macro   0x0000000000000000       0x4c /home/konata/devel/libopencm3/lib/libopencm3_stm32f4.a(usb_control.o)
 .debug_macro   0x0000000000000000       0x8d /home/konata/devel/libopencm3/lib/libopencm3_stm32f4.a(usb_control.o)
 .debug_macro   0x0000000000000000       0x35 /home/konata/devel/libopencm3/lib/libopencm3_stm32f4.a(usb_control.o)
 .debug_macro   0x0000000000000000       0x9c /home/konata/devel/libopencm3/lib/libopencm3_stm32f4.a(usb_control.o)
 .debug_macro   0x0000000000000000       0x4a /home/konata/devel/libopencm3/lib/libopencm3_stm32f4.a(usb_control.o)
 .debug_macro   0x0000000000000000       0x52 /home/konata/devel/libopencm3/lib/libopencm3_stm32f4.a(usb_control.o)
 .debug_macro   0x0000000000000000       0x1f /home/konata/devel/libopencm3/lib/libopencm3_stm32f4.a(usb_control.o)
 .debug_macro   0x0000000000000000       0x43 /home/konata/devel/libopencm3/lib/libopencm3_stm32f4.a(usb_control.o)
 .debug_macro   0x0000000000000000       0x20 /home/konata/devel/libopencm3/lib/libopencm3_stm32f4.a(usb_control.o)
 .debug_macro   0x0000000000000000      0x187 /home/konata/devel/libopencm3/lib/libopencm3_stm32f4.a(usb_control.o)
 .debug_macro   0x0000000000000000      0x30d /home/konata/devel/libopencm3/lib/libopencm3_stm32f4.a(usb_control.o)
 .debug_macro   0x0000000000000000       0xfd /home/konata/devel/libopencm3/lib/libopencm3_stm32f4.a(usb_control.o)
 .debug_macro   0x0000000000000000       0x5e /home/konata/devel/libopencm3/lib/libopencm3_stm32f4.a(usb_control.o)
 .debug_macro   0x0000000000000000      0x1df /home/konata/devel/libopencm3/lib/libopencm3_stm32f4.a(usb_control.o)
 .debug_macro   0x0000000000000000       0x22 /home/konata/devel/libopencm3/lib/libopencm3_stm32f4.a(usb_control.o)
 .debug_macro   0x0000000000000000       0xfa /home/konata/devel/libopencm3/lib/libopencm3_stm32f4.a(usb_control.o)
 .debug_macro   0x0000000000000000      0x196 /home/konata/devel/libopencm3/lib/libopencm3_stm32f4.a(usb_control.o)
 .debug_macro   0x0000000000000000       0x10 /home/konata/devel/libopencm3/lib/libopencm3_stm32f4.a(usb_control.o)
 .debug_macro   0x0000000000000000       0x1c /home/konata/devel/libopencm3/lib/libopencm3_stm32f4.a(usb_control.o)
 .group         0x0000000000000000        0x8 /home/konata/devel/libopencm3/lib/libopencm3_stm32f4.a(usb_f107.o)
 .group         0x0000000000000000        0x8 /home/konata/devel/libopencm3/lib/libopencm3_stm32f4.a(usb_f107.o)
 .group         0x0000000000000000        0x8 /home/konata/devel/libopencm3/lib/libopencm3_stm32f4.a(usb_f107.o)
 .group         0x0000000000000000        0x8 /home/konata/devel/libopencm3/lib/libopencm3_stm32f4.a(usb_f107.o)
 .group         0x0000000000000000        0x8 /home/konata/devel/libopencm3/lib/libopencm3_stm32f4.a(usb_f107.o)
 .group         0x0000000000000000        0x8 /home/konata/devel/libopencm3/lib/libopencm3_stm32f4.a(usb_f107.o)
 .group         0x0000000000000000        0x8 /home/konata/devel/libopencm3/lib/libopencm3_stm32f4.a(usb_f107.o)
 .group         0x0000000000000000        0x8 /home/konata/devel/libopencm3/lib/libopencm3_stm32f4.a(usb_f107.o)
 .group         0x0000000000000000        0x8 /home/konata/devel/libopencm3/lib/libopencm3_stm32f4.a(usb_f107.o)
 .group         0x0000000000000000        0x8 /home/konata/devel/libopencm3/lib/libopencm3_stm32f4.a(usb_f107.o)
 .group         0x0000000000000000        0x8 /home/konata/devel/libopencm3/lib/libopencm3_stm32f4.a(usb_f107.o)
 .group         0x0000000000000000        0x8 /home/konata/devel/libopencm3/lib/libopencm3_stm32f4.a(usb_f107.o)
 .group         0x0000000000000000        0x8 /home/konata/devel/libopencm3/lib/libopencm3_stm32f4.a(usb_f107.o)
 .group         0x0000000000000000        0x8 /home/konata/devel/libopencm3/lib/libopencm3_stm32f4.a(usb_f107.o)
 .group         0x0000000000000000        0x8 /home/konata/devel/libopencm3/lib/libopencm3_stm32f4.a(usb_f107.o)
 .group         0x0000000000000000        0x8 /home/konata/devel/libopencm3/lib/libopencm3_stm32f4.a(usb_f107.o)
 .group         0x0000000000000000        0x8 /home/konata/devel/libopencm3/lib/libopencm3_stm32f4.a(usb_f107.o)
 .group         0x0000000000000000        0x8 /home/konata/devel/libopencm3/lib/libopencm3_stm32f4.a(usb_f107.o)
 .group         0x0000000000000000        0x8 /home/konata/devel/libopencm3/lib/libopencm3_stm32f4.a(usb_f107.o)
 .group         0x0000000000000000        0x8 /home/konata/devel/libopencm3/lib/libopencm3_stm32f4.a(usb_f107.o)
 .group         0x0000000000000000        0x8 /home/konata/devel/libopencm3/lib/libopencm3_stm32f4.a(usb_f107.o)
 .group         0x0000000000000000        0x8 /home/konata/devel/libopencm3/lib/libopencm3_stm32f4.a(usb_f107.o)
 .group         0x0000000000000000        0x8 /home/konata/devel/libopencm3/lib/libopencm3_stm32f4.a(usb_f107.o)
 .group         0x0000000000000000        0x8 /home/konata/devel/libopencm3/lib/libopencm3_stm32f4.a(usb_f107.o)
 .group         0x0000000000000000        0x8 /home/konata/devel/libopencm3/lib/libopencm3_stm32f4.a(usb_f107.o)
 .group         0x0000000000000000        0x8 /home/konata/devel/libopencm3/lib/libopencm3_stm32f4.a(usb_f107.o)
 .group         0x0000000000000000        0x8 /home/konata/devel/libopencm3/lib/libopencm3_stm32f4.a(usb_f107.o)
 .group         0x0000000000000000        0x8 /home/konata/devel/libopencm3/lib/libopencm3_stm32f4.a(usb_f107.o)
 .group         0x0000000000000000        0x8 /home/konata/devel/libopencm3/lib/libopencm3_stm32f4.a(usb_f107.o)
 .group         0x0000000000000000        0x8 /home/konata/devel/libopencm3/lib/libopencm3_stm32f4.a(usb_f107.o)
 .debug_macro   0x0000000000000000      0x88c /home/konata/devel/libopencm3/lib/libopencm3_stm32f4.a(usb_f107.o)
 .debug_macro   0x0000000000000000       0x22 /home/konata/devel/libopencm3/lib/libopencm3_stm32f4.a(usb_f107.o)
 .debug_macro   0x0000000000000000       0x4c /home/konata/devel/libopencm3/lib/libopencm3_stm32f4.a(usb_f107.o)
 .debug_macro   0x0000000000000000       0x8d /home/konata/devel/libopencm3/lib/libopencm3_stm32f4.a(usb_f107.o)
 .debug_macro   0x0000000000000000       0x35 /home/konata/devel/libopencm3/lib/libopencm3_stm32f4.a(usb_f107.o)
 .debug_macro   0x0000000000000000       0x9c /home/konata/devel/libopencm3/lib/libopencm3_stm32f4.a(usb_f107.o)
 .debug_macro   0x0000000000000000      0x174 /home/konata/devel/libopencm3/lib/libopencm3_stm32f4.a(usb_f107.o)
 .debug_macro   0x0000000000000000       0x4a /home/konata/devel/libopencm3/lib/libopencm3_stm32f4.a(usb_f107.o)
 .debug_macro   0x0000000000000000       0x52 /home/konata/devel/libopencm3/lib/libopencm3_stm32f4.a(usb_f107.o)
 .debug_macro   0x0000000000000000       0x1f /home/konata/devel/libopencm3/lib/libopencm3_stm32f4.a(usb_f107.o)
 .debug_macro   0x0000000000000000       0x43 /home/konata/devel/libopencm3/lib/libopencm3_stm32f4.a(usb_f107.o)
 .debug_macro   0x0000000000000000       0x20 /home/konata/devel/libopencm3/lib/libopencm3_stm32f4.a(usb_f107.o)
 .debug_macro   0x0000000000000000      0x187 /home/konata/devel/libopencm3/lib/libopencm3_stm32f4.a(usb_f107.o)
 .debug_macro   0x0000000000000000      0x30d /home/konata/devel/libopencm3/lib/libopencm3_stm32f4.a(usb_f107.o)
 .debug_macro   0x0000000000000000       0x10 /home/konata/devel/libopencm3/lib/libopencm3_stm32f4.a(usb_f107.o)
 .debug_macro   0x0000000000000000       0x35 /home/konata/devel/libopencm3/lib/libopencm3_stm32f4.a(usb_f107.o)
 .debug_macro   0x0000000000000000       0xfd /home/konata/devel/libopencm3/lib/libopencm3_stm32f4.a(usb_f107.o)
 .debug_macro   0x0000000000000000       0x5e /home/konata/devel/libopencm3/lib/libopencm3_stm32f4.a(usb_f107.o)
 .debug_macro   0x0000000000000000      0x1df /home/konata/devel/libopencm3/lib/libopencm3_stm32f4.a(usb_f107.o)
 .debug_macro   0x0000000000000000       0x22 /home/konata/devel/libopencm3/lib/libopencm3_stm32f4.a(usb_f107.o)
 .debug_macro   0x0000000000000000       0xfa /home/konata/devel/libopencm3/lib/libopencm3_stm32f4.a(usb_f107.o)
 .debug_macro   0x0000000000000000       0x58 /home/konata/devel/libopencm3/lib/libopencm3_stm32f4.a(usb_f107.o)
 .debug_macro   0x0000000000000000      0x26d /home/konata/devel/libopencm3/lib/libopencm3_stm32f4.a(usb_f107.o)
 .debug_macro   0x0000000000000000      0xb3f /home/konata/devel/libopencm3/lib/libopencm3_stm32f4.a(usb_f107.o)
 .debug_macro   0x0000000000000000       0x10 /home/konata/devel/libopencm3/lib/libopencm3_stm32f4.a(usb_f107.o)
 .debug_macro   0x0000000000000000       0x1c /home/konata/devel/libopencm3/lib/libopencm3_stm32f4.a(usb_f107.o)
 .group         0x0000000000000000        0x8 /home/konata/devel/libopencm3/lib/libopencm3_stm32f4.a(vector.o)
 .group         0x0000000000000000        0x8 /home/konata/devel/libopencm3/lib/libopencm3_stm32f4.a(vector.o)
 .group         0x0000000000000000        0x8 /home/konata/devel/libopencm3/lib/libopencm3_stm32f4.a(vector.o)
 .group         0x0000000000000000        0x8 /home/konata/devel/libopencm3/lib/libopencm3_stm32f4.a(vector.o)
 .group         0x0000000000000000        0x8 /home/konata/devel/libopencm3/lib/libopencm3_stm32f4.a(vector.o)
 .group         0x0000000000000000        0x8 /home/konata/devel/libopencm3/lib/libopencm3_stm32f4.a(vector.o)
 .group         0x0000000000000000        0x8 /home/konata/devel/libopencm3/lib/libopencm3_stm32f4.a(vector.o)
 .group         0x0000000000000000        0x8 /home/konata/devel/libopencm3/lib/libopencm3_stm32f4.a(vector.o)
 .group         0x0000000000000000        0x8 /home/konata/devel/libopencm3/lib/libopencm3_stm32f4.a(vector.o)
 .group         0x0000000000000000        0x8 /home/konata/devel/libopencm3/lib/libopencm3_stm32f4.a(vector.o)
 .group         0x0000000000000000        0x8 /home/konata/devel/libopencm3/lib/libopencm3_stm32f4.a(vector.o)
 .group         0x0000000000000000        0x8 /home/konata/devel/libopencm3/lib/libopencm3_stm32f4.a(vector.o)
 .group         0x0000000000000000        0x8 /home/konata/devel/libopencm3/lib/libopencm3_stm32f4.a(vector.o)
 .debug_macro   0x0000000000000000      0x88c /home/konata/devel/libopencm3/lib/libopencm3_stm32f4.a(vector.o)
 .debug_macro   0x0000000000000000       0x58 /home/konata/devel/libopencm3/lib/libopencm3_stm32f4.a(vector.o)
 .debug_macro   0x0000000000000000       0x22 /home/konata/devel/libopencm3/lib/libopencm3_stm32f4.a(vector.o)
 .debug_macro   0x0000000000000000       0x87 /home/konata/devel/libopencm3/lib/libopencm3_stm32f4.a(vector.o)
 .debug_macro   0x0000000000000000       0x44 /home/konata/devel/libopencm3/lib/libopencm3_stm32f4.a(vector.o)
 .debug_macro   0x0000000000000000       0xfd /home/konata/devel/libopencm3/lib/libopencm3_stm32f4.a(vector.o)
 .debug_macro   0x0000000000000000       0x5e /home/konata/devel/libopencm3/lib/libopencm3_stm32f4.a(vector.o)
 .debug_macro   0x0000000000000000      0x1df /home/konata/devel/libopencm3/lib/libopencm3_stm32f4.a(vector.o)
 .debug_macro   0x0000000000000000       0x22 /home/konata/devel/libopencm3/lib/libopencm3_stm32f4.a(vector.o)
 .debug_macro   0x0000000000000000       0xfa /home/konata/devel/libopencm3/lib/libopencm3_stm32f4.a(vector.o)
 .group         0x0000000000000000        0x8 /home/konata/devel/libopencm3/lib/libopencm3_stm32f4.a(systick.o)
 .group         0x0000000000000000        0x8 /home/konata/devel/libopencm3/lib/libopencm3_stm32f4.a(systick.o)
 .group         0x0000000000000000        0x8 /home/konata/devel/libopencm3/lib/libopencm3_stm32f4.a(systick.o)
 .group         0x0000000000000000        0x8 /home/konata/devel/libopencm3/lib/libopencm3_stm32f4.a(systick.o)
 .group         0x0000000000000000        0x8 /home/konata/devel/libopencm3/lib/libopencm3_stm32f4.a(systick.o)
 .group         0x0000000000000000        0x8 /home/konata/devel/libopencm3/lib/libopencm3_stm32f4.a(systick.o)
 .group         0x0000000000000000        0x8 /home/konata/devel/libopencm3/lib/libopencm3_stm32f4.a(systick.o)
 .group         0x0000000000000000        0x8 /home/konata/devel/libopencm3/lib/libopencm3_stm32f4.a(systick.o)
 .group         0x0000000000000000        0x8 /home/konata/devel/libopencm3/lib/libopencm3_stm32f4.a(systick.o)
 .group         0x0000000000000000        0x8 /home/konata/devel/libopencm3/lib/libopencm3_stm32f4.a(systick.o)
 .group         0x0000000000000000        0x8 /home/konata/devel/libopencm3/lib/libopencm3_stm32f4.a(systick.o)
 .debug_macro   0x0000000000000000      0x88c /home/konata/devel/libopencm3/lib/libopencm3_stm32f4.a(systick.o)
 .debug_macro   0x0000000000000000       0x58 /home/konata/devel/libopencm3/lib/libopencm3_stm32f4.a(systick.o)
 .debug_macro   0x0000000000000000       0x22 /home/konata/devel/libopencm3/lib/libopencm3_stm32f4.a(systick.o)
 .debug_macro   0x0000000000000000       0x87 /home/konata/devel/libopencm3/lib/libopencm3_stm32f4.a(systick.o)
 .debug_macro   0x0000000000000000       0x44 /home/konata/devel/libopencm3/lib/libopencm3_stm32f4.a(systick.o)
 .debug_macro   0x0000000000000000       0xfd /home/konata/devel/libopencm3/lib/libopencm3_stm32f4.a(systick.o)
 .debug_macro   0x0000000000000000       0x5e /home/konata/devel/libopencm3/lib/libopencm3_stm32f4.a(systick.o)
 .debug_macro   0x0000000000000000      0x1df /home/konata/devel/libopencm3/lib/libopencm3_stm32f4.a(systick.o)
 .debug_macro   0x0000000000000000       0x22 /home/konata/devel/libopencm3/lib/libopencm3_stm32f4.a(systick.o)
 .debug_macro   0x0000000000000000       0xfa /home/konata/devel/libopencm3/lib/libopencm3_stm32f4.a(systick.o)
 .group         0x0000000000000000        0x8 /home/konata/devel/libopencm3/lib/libopencm3_stm32f4.a(nvic.o)
 .group         0x0000000000000000        0x8 /home/konata/devel/libopencm3/lib/libopencm3_stm32f4.a(nvic.o)
 .group         0x0000000000000000        0x8 /home/konata/devel/libopencm3/lib/libopencm3_stm32f4.a(nvic.o)
 .group         0x0000000000000000        0x8 /home/konata/devel/libopencm3/lib/libopencm3_stm32f4.a(nvic.o)
 .group         0x0000000000000000        0x8 /home/konata/devel/libopencm3/lib/libopencm3_stm32f4.a(nvic.o)
 .group         0x0000000000000000        0x8 /home/konata/devel/libopencm3/lib/libopencm3_stm32f4.a(nvic.o)
 .group         0x0000000000000000        0x8 /home/konata/devel/libopencm3/lib/libopencm3_stm32f4.a(nvic.o)
 .group         0x0000000000000000        0x8 /home/konata/devel/libopencm3/lib/libopencm3_stm32f4.a(nvic.o)
 .group         0x0000000000000000        0x8 /home/konata/devel/libopencm3/lib/libopencm3_stm32f4.a(nvic.o)
 .group         0x0000000000000000        0x8 /home/konata/devel/libopencm3/lib/libopencm3_stm32f4.a(nvic.o)
 .group         0x0000000000000000        0x8 /home/konata/devel/libopencm3/lib/libopencm3_stm32f4.a(nvic.o)
 .group         0x0000000000000000        0x8 /home/konata/devel/libopencm3/lib/libopencm3_stm32f4.a(nvic.o)
 .group         0x0000000000000000        0x8 /home/konata/devel/libopencm3/lib/libopencm3_stm32f4.a(nvic.o)
 .debug_macro   0x0000000000000000      0x88c /home/konata/devel/libopencm3/lib/libopencm3_stm32f4.a(nvic.o)
 .debug_macro   0x0000000000000000       0x22 /home/konata/devel/libopencm3/lib/libopencm3_stm32f4.a(nvic.o)
 .debug_macro   0x0000000000000000       0x87 /home/konata/devel/libopencm3/lib/libopencm3_stm32f4.a(nvic.o)
 .debug_macro   0x0000000000000000       0x44 /home/konata/devel/libopencm3/lib/libopencm3_stm32f4.a(nvic.o)
 .debug_macro   0x0000000000000000       0xfd /home/konata/devel/libopencm3/lib/libopencm3_stm32f4.a(nvic.o)
 .debug_macro   0x0000000000000000       0x5e /home/konata/devel/libopencm3/lib/libopencm3_stm32f4.a(nvic.o)
 .debug_macro   0x0000000000000000      0x1df /home/konata/devel/libopencm3/lib/libopencm3_stm32f4.a(nvic.o)
 .debug_macro   0x0000000000000000       0x22 /home/konata/devel/libopencm3/lib/libopencm3_stm32f4.a(nvic.o)
 .debug_macro   0x0000000000000000       0xfa /home/konata/devel/libopencm3/lib/libopencm3_stm32f4.a(nvic.o)
 .debug_macro   0x0000000000000000       0x58 /home/konata/devel/libopencm3/lib/libopencm3_stm32f4.a(nvic.o)
 .debug_macro   0x0000000000000000      0x22c /home/konata/devel/libopencm3/lib/libopencm3_stm32f4.a(nvic.o)
 .group         0x0000000000000000        0x8 /home/konata/devel/libopencm3/lib/libopencm3_stm32f4.a(pwr.o)
 .group         0x0000000000000000        0x8 /home/konata/devel/libopencm3/lib/libopencm3_stm32f4.a(pwr.o)
 .group         0x0000000000000000        0x8 /home/konata/devel/libopencm3/lib/libopencm3_stm32f4.a(pwr.o)
 .group         0x0000000000000000        0x8 /home/konata/devel/libopencm3/lib/libopencm3_stm32f4.a(pwr.o)
 .group         0x0000000000000000        0x8 /home/konata/devel/libopencm3/lib/libopencm3_stm32f4.a(pwr.o)
 .group         0x0000000000000000        0x8 /home/konata/devel/libopencm3/lib/libopencm3_stm32f4.a(pwr.o)
 .group         0x0000000000000000        0x8 /home/konata/devel/libopencm3/lib/libopencm3_stm32f4.a(pwr.o)
 .group         0x0000000000000000        0x8 /home/konata/devel/libopencm3/lib/libopencm3_stm32f4.a(pwr.o)
 .group         0x0000000000000000        0x8 /home/konata/devel/libopencm3/lib/libopencm3_stm32f4.a(pwr.o)
 .group         0x0000000000000000        0x8 /home/konata/devel/libopencm3/lib/libopencm3_stm32f4.a(pwr.o)
 .group         0x0000000000000000        0x8 /home/konata/devel/libopencm3/lib/libopencm3_stm32f4.a(pwr.o)
 .group         0x0000000000000000        0x8 /home/konata/devel/libopencm3/lib/libopencm3_stm32f4.a(pwr.o)
 .group         0x0000000000000000        0x8 /home/konata/devel/libopencm3/lib/libopencm3_stm32f4.a(pwr.o)
 .debug_macro   0x0000000000000000      0x88c /home/konata/devel/libopencm3/lib/libopencm3_stm32f4.a(pwr.o)
 .debug_macro   0x0000000000000000       0x22 /home/konata/devel/libopencm3/lib/libopencm3_stm32f4.a(pwr.o)
 .debug_macro   0x0000000000000000       0x87 /home/konata/devel/libopencm3/lib/libopencm3_stm32f4.a(pwr.o)
 .debug_macro   0x0000000000000000       0x44 /home/konata/devel/libopencm3/lib/libopencm3_stm32f4.a(pwr.o)
 .debug_macro   0x0000000000000000       0xfd /home/konata/devel/libopencm3/lib/libopencm3_stm32f4.a(pwr.o)
 .debug_macro   0x0000000000000000       0x5e /home/konata/devel/libopencm3/lib/libopencm3_stm32f4.a(pwr.o)
 .debug_macro   0x0000000000000000      0x1df /home/konata/devel/libopencm3/lib/libopencm3_stm32f4.a(pwr.o)
 .debug_macro   0x0000000000000000       0x22 /home/konata/devel/libopencm3/lib/libopencm3_stm32f4.a(pwr.o)
 .debug_macro   0x0000000000000000       0xfa /home/konata/devel/libopencm3/lib/libopencm3_stm32f4.a(pwr.o)
 .debug_macro   0x0000000000000000       0x58 /home/konata/devel/libopencm3/lib/libopencm3_stm32f4.a(pwr.o)
 .debug_macro   0x0000000000000000      0x26d /home/konata/devel/libopencm3/lib/libopencm3_stm32f4.a(pwr.o)
 .debug_macro   0x0000000000000000       0x8e /home/konata/devel/libopencm3/lib/libopencm3_stm32f4.a(pwr.o)
 .debug_macro   0x0000000000000000       0x22 /home/konata/devel/libopencm3/lib/libopencm3_stm32f4.a(pwr.o)
 .group         0x0000000000000000        0x8 /home/konata/devel/libopencm3/lib/libopencm3_stm32f4.a(usb_fx07_common.o)
 .group         0x0000000000000000        0x8 /home/konata/devel/libopencm3/lib/libopencm3_stm32f4.a(usb_fx07_common.o)
 .group         0x0000000000000000        0x8 /home/konata/devel/libopencm3/lib/libopencm3_stm32f4.a(usb_fx07_common.o)
 .group         0x0000000000000000        0x8 /home/konata/devel/libopencm3/lib/libopencm3_stm32f4.a(usb_fx07_common.o)
 .group         0x0000000000000000        0x8 /home/konata/devel/libopencm3/lib/libopencm3_stm32f4.a(usb_fx07_common.o)
 .group         0x0000000000000000        0x8 /home/konata/devel/libopencm3/lib/libopencm3_stm32f4.a(usb_fx07_common.o)
 .group         0x0000000000000000        0x8 /home/konata/devel/libopencm3/lib/libopencm3_stm32f4.a(usb_fx07_common.o)
 .group         0x0000000000000000        0x8 /home/konata/devel/libopencm3/lib/libopencm3_stm32f4.a(usb_fx07_common.o)
 .group         0x0000000000000000        0x8 /home/konata/devel/libopencm3/lib/libopencm3_stm32f4.a(usb_fx07_common.o)
 .group         0x0000000000000000        0x8 /home/konata/devel/libopencm3/lib/libopencm3_stm32f4.a(usb_fx07_common.o)
 .group         0x0000000000000000        0x8 /home/konata/devel/libopencm3/lib/libopencm3_stm32f4.a(usb_fx07_common.o)
 .group         0x0000000000000000        0x8 /home/konata/devel/libopencm3/lib/libopencm3_stm32f4.a(usb_fx07_common.o)
 .group         0x0000000000000000        0x8 /home/konata/devel/libopencm3/lib/libopencm3_stm32f4.a(usb_fx07_common.o)
 .group         0x0000000000000000        0x8 /home/konata/devel/libopencm3/lib/libopencm3_stm32f4.a(usb_fx07_common.o)
 .group         0x0000000000000000        0x8 /home/konata/devel/libopencm3/lib/libopencm3_stm32f4.a(usb_fx07_common.o)
 .group         0x0000000000000000        0x8 /home/konata/devel/libopencm3/lib/libopencm3_stm32f4.a(usb_fx07_common.o)
 .group         0x0000000000000000        0x8 /home/konata/devel/libopencm3/lib/libopencm3_stm32f4.a(usb_fx07_common.o)
 .group         0x0000000000000000        0x8 /home/konata/devel/libopencm3/lib/libopencm3_stm32f4.a(usb_fx07_common.o)
 .group         0x0000000000000000        0x8 /home/konata/devel/libopencm3/lib/libopencm3_stm32f4.a(usb_fx07_common.o)
 .group         0x0000000000000000        0x8 /home/konata/devel/libopencm3/lib/libopencm3_stm32f4.a(usb_fx07_common.o)
 .group         0x0000000000000000        0x8 /home/konata/devel/libopencm3/lib/libopencm3_stm32f4.a(usb_fx07_common.o)
 .group         0x0000000000000000        0x8 /home/konata/devel/libopencm3/lib/libopencm3_stm32f4.a(usb_fx07_common.o)
 .group         0x0000000000000000        0x8 /home/konata/devel/libopencm3/lib/libopencm3_stm32f4.a(usb_fx07_common.o)
 .group         0x0000000000000000        0x8 /home/konata/devel/libopencm3/lib/libopencm3_stm32f4.a(usb_fx07_common.o)
 .group         0x0000000000000000        0x8 /home/konata/devel/libopencm3/lib/libopencm3_stm32f4.a(usb_fx07_common.o)
 .group         0x0000000000000000        0x8 /home/konata/devel/libopencm3/lib/libopencm3_stm32f4.a(usb_fx07_common.o)
 .group         0x0000000000000000        0x8 /home/konata/devel/libopencm3/lib/libopencm3_stm32f4.a(usb_fx07_common.o)
 .group         0x0000000000000000        0x8 /home/konata/devel/libopencm3/lib/libopencm3_stm32f4.a(usb_fx07_common.o)
 .group         0x0000000000000000        0x8 /home/konata/devel/libopencm3/lib/libopencm3_stm32f4.a(usb_fx07_common.o)
 .group         0x0000000000000000        0x8 /home/konata/devel/libopencm3/lib/libopencm3_stm32f4.a(usb_fx07_common.o)
 .debug_macro   0x0000000000000000      0x88c /home/konata/devel/libopencm3/lib/libopencm3_stm32f4.a(usb_fx07_common.o)
 .debug_macro   0x0000000000000000       0x22 /home/konata/devel/libopencm3/lib/libopencm3_stm32f4.a(usb_fx07_common.o)
 .debug_macro   0x0000000000000000       0x4c /home/konata/devel/libopencm3/lib/libopencm3_stm32f4.a(usb_fx07_common.o)
 .debug_macro   0x0000000000000000       0x8d /home/konata/devel/libopencm3/lib/libopencm3_stm32f4.a(usb_fx07_common.o)
 .debug_macro   0x0000000000000000       0x35 /home/konata/devel/libopencm3/lib/libopencm3_stm32f4.a(usb_fx07_common.o)
 .debug_macro   0x0000000000000000       0x9c /home/konata/devel/libopencm3/lib/libopencm3_stm32f4.a(usb_fx07_common.o)
 .debug_macro   0x0000000000000000      0x174 /home/konata/devel/libopencm3/lib/libopencm3_stm32f4.a(usb_fx07_common.o)
 .debug_macro   0x0000000000000000       0x4a /home/konata/devel/libopencm3/lib/libopencm3_stm32f4.a(usb_fx07_common.o)
 .debug_macro   0x0000000000000000       0x52 /home/konata/devel/libopencm3/lib/libopencm3_stm32f4.a(usb_fx07_common.o)
 .debug_macro   0x0000000000000000       0x1f /home/konata/devel/libopencm3/lib/libopencm3_stm32f4.a(usb_fx07_common.o)
 .debug_macro   0x0000000000000000       0x43 /home/konata/devel/libopencm3/lib/libopencm3_stm32f4.a(usb_fx07_common.o)
 .debug_macro   0x0000000000000000       0x20 /home/konata/devel/libopencm3/lib/libopencm3_stm32f4.a(usb_fx07_common.o)
 .debug_macro   0x0000000000000000      0x187 /home/konata/devel/libopencm3/lib/libopencm3_stm32f4.a(usb_fx07_common.o)
 .debug_macro   0x0000000000000000      0x30d /home/konata/devel/libopencm3/lib/libopencm3_stm32f4.a(usb_fx07_common.o)
 .debug_macro   0x0000000000000000       0x10 /home/konata/devel/libopencm3/lib/libopencm3_stm32f4.a(usb_fx07_common.o)
 .debug_macro   0x0000000000000000       0x35 /home/konata/devel/libopencm3/lib/libopencm3_stm32f4.a(usb_fx07_common.o)
 .debug_macro   0x0000000000000000       0xfd /home/konata/devel/libopencm3/lib/libopencm3_stm32f4.a(usb_fx07_common.o)
 .debug_macro   0x0000000000000000       0x5e /home/konata/devel/libopencm3/lib/libopencm3_stm32f4.a(usb_fx07_common.o)
 .debug_macro   0x0000000000000000      0x1df /home/konata/devel/libopencm3/lib/libopencm3_stm32f4.a(usb_fx07_common.o)
 .debug_macro   0x0000000000000000       0x22 /home/konata/devel/libopencm3/lib/libopencm3_stm32f4.a(usb_fx07_common.o)
 .debug_macro   0x0000000000000000       0xfa /home/konata/devel/libopencm3/lib/libopencm3_stm32f4.a(usb_fx07_common.o)
 .debug_macro   0x0000000000000000       0x3a /home/konata/devel/libopencm3/lib/libopencm3_stm32f4.a(usb_fx07_common.o)
 .debug_macro   0x0000000000000000       0x58 /home/konata/devel/libopencm3/lib/libopencm3_stm32f4.a(usb_fx07_common.o)
 .debug_macro   0x0000000000000000      0x26d /home/konata/devel/libopencm3/lib/libopencm3_stm32f4.a(usb_fx07_common.o)
 .debug_macro   0x0000000000000000      0x8d7 /home/konata/devel/libopencm3/lib/libopencm3_stm32f4.a(usb_fx07_common.o)
 .debug_macro   0x0000000000000000      0x130 /home/konata/devel/libopencm3/lib/libopencm3_stm32f4.a(usb_fx07_common.o)
 .debug_macro   0x0000000000000000      0x19c /home/konata/devel/libopencm3/lib/libopencm3_stm32f4.a(usb_fx07_common.o)
 .debug_macro   0x0000000000000000       0x10 /home/konata/devel/libopencm3/lib/libopencm3_stm32f4.a(usb_fx07_common.o)
 .debug_macro   0x0000000000000000       0x1c /home/konata/devel/libopencm3/lib/libopencm3_stm32f4.a(usb_fx07_common.o)

Memory Configuration

Name             Origin             Length             Attributes
rom              0x0000000008000000 0x0000000000100000 xr
ccm              0x0000000010000000 0x0000000000010000 xrw
ram              0x0000000020000000 0x0000000000030000 xrw
*default*        0x0000000000000000 0xffffffffffffffff

Linker script and memory map

START GROUP
LOAD /home/kaori/devel/stm32/gcc-arm-none-eabi-8-2018-q4-major/bin/../lib/gcc/arm-none-eabi/8.2.1/../../../../arm-none-eabi/lib/thumb/v7e-m+fp/hard/libc_nano.a
LOAD /home/kaori/devel/stm32/gcc-arm-none-eabi-8-2018-q4-major/bin/../lib/gcc/arm-none-eabi/8.2.1/thumb/v7e-m+fp/hard/libgcc.a
LOAD /home/kaori/devel/stm32/gcc-arm-none-eabi-8-2018-q4-major/bin/../lib/gcc/arm-none-eabi/8.2.1/../../../../arm-none-eabi/lib/thumb/v7e-m+fp/hard/libnosys.a
END GROUP
LOAD ././ui/ui_lhandlers.o
LOAD ././ui/mew_logo.o
LOAD ././ui/pinpad.o
LOAD ././drivers/display/ts_tsc2007.o
LOAD ././drivers/display/display.o
LOAD ././drivers/bluetooth/bt_usart.o
LOAD ././drivers/flash/otp_storage.o
LOAD ././drivers/system/clock.o
LOAD ././drivers/system/systick.o
LOAD ././drivers/system/random.o
LOAD ././drivers/system/system.o
LOAD ././drivers/spi_flash/w25n01gvzeig.o
LOAD ././drivers/spi_flash/flash.o
LOAD ././drivers/duart/duart.o
LOAD ././drivers/i2c/i2c.o
LOAD ././drivers/usb/mew_usb_hid.o
LOAD ././drivers/hw_crypt/aes256.o
LOAD ././drivers/hw_crypt/P256-cortex-ecdh.o
LOAD ././drivers/hw_crypt/sha2_256.o
LOAD ././lvgl/lv_core/lv_obj.o
LOAD ././lvgl/lv_core/lv_group.o
LOAD ././lvgl/lv_core/lv_vdb.o
LOAD ././lvgl/lv_core/lv_style.o
LOAD ././lvgl/lv_core/lv_indev.o
LOAD ././lvgl/lv_core/lv_refr.o
LOAD ././lvgl/lv_objx/lv_kb.o
LOAD ././lvgl/lv_objx/lv_sw.o
LOAD ././lvgl/lv_objx/lv_img.o
LOAD ././lvgl/lv_objx/lv_slider.o
LOAD ././lvgl/lv_objx/lv_ta.o
LOAD ././lvgl/lv_objx/lv_chart.o
LOAD ././lvgl/lv_objx/lv_ddlist.o
LOAD ././lvgl/lv_objx/lv_cb.o
LOAD ././lvgl/lv_objx/lv_mbox.o
LOAD ././lvgl/lv_objx/lv_roller.o
LOAD ././lvgl/lv_objx/lv_objx_templ.o
LOAD ././lvgl/lv_objx/lv_gauge.o
LOAD ././lvgl/lv_objx/lv_win.o
LOAD ././lvgl/lv_objx/lv_list.o
LOAD ././lvgl/lv_objx/lv_tabview.o
LOAD ././lvgl/lv_objx/lv_line.o
LOAD ././lvgl/lv_objx/lv_btn.o
LOAD ././lvgl/lv_objx/lv_label.o
LOAD ././lvgl/lv_objx/lv_page.o
LOAD ././lvgl/lv_objx/lv_lmeter.o
LOAD ././lvgl/lv_objx/lv_led.o
LOAD ././lvgl/lv_objx/lv_btnm.o
LOAD ././lvgl/lv_objx/lv_cont.o
LOAD ././lvgl/lv_objx/lv_bar.o
LOAD ././lvgl/lv_draw/lv_draw.o
LOAD ././lvgl/lv_draw/lv_draw_rbasic.o
LOAD ././lvgl/lv_draw/lv_draw_vbasic.o
LOAD ././lvgl/lv_themes/lv_theme_zen.o
LOAD ././lvgl/lv_themes/lv_theme_night.o
LOAD ././lvgl/lv_themes/lv_theme.o
LOAD ././lvgl/lv_themes/lv_theme_default.o
LOAD ././lvgl/lv_themes/lv_theme_mono.o
LOAD ././lvgl/lv_themes/lv_theme_alien.o
LOAD ././lvgl/lv_themes/lv_theme_material.o
LOAD ././lvgl/lv_themes/lv_theme_templ.o
LOAD ././lvgl/lv_hal/lv_hal_tick.o
LOAD ././lvgl/lv_hal/lv_hal_indev.o
LOAD ././lvgl/lv_hal/lv_hal_disp.o
LOAD ././lvgl/lv_misc/lv_ll.o
LOAD ././lvgl/lv_misc/lv_circ.o
LOAD ././lvgl/lv_misc/lv_txt.o
LOAD ././lvgl/lv_misc/lv_task.o
LOAD ././lvgl/lv_misc/lv_math.o
LOAD ././lvgl/lv_misc/lv_fs.o
LOAD ././lvgl/lv_misc/lv_templ.o
LOAD ././lvgl/lv_misc/lv_trigo.o
LOAD ././lvgl/lv_misc/lv_ufs.o
LOAD ././lvgl/lv_misc/lv_color.o
LOAD ././lvgl/lv_misc/lv_anim.o
LOAD ././lvgl/lv_misc/lv_mem.o
LOAD ././lvgl/lv_misc/lv_font.o
LOAD ././lvgl/lv_misc/lv_fonts/lv_font_dejavu_20_cyrillic.o
LOAD ././lvgl/lv_misc/lv_fonts/lv_font_dejavu_30.o
LOAD ././lvgl/lv_misc/lv_fonts/lv_font_dejavu_30_cyrillic.o
LOAD ././lvgl/lv_misc/lv_fonts/lv_font_dejavu_10_cyrillic.o
LOAD ././lvgl/lv_misc/lv_fonts/lv_font_dejavu_10_latin_sup.o
LOAD ././lvgl/lv_misc/lv_fonts/lv_font_symbol_40.o
LOAD ././lvgl/lv_misc/lv_fonts/lv_font_symbol_30.o
LOAD ././lvgl/lv_misc/lv_fonts/lv_font_symbol_20.o
LOAD ././lvgl/lv_misc/lv_fonts/lv_font_dejavu_30_latin_sup.o
LOAD ././lvgl/lv_misc/lv_fonts/lv_font_dejavu_40_latin_sup.o
LOAD ././lvgl/lv_misc/lv_fonts/lv_font_symbol_10.o
LOAD ././lvgl/lv_misc/lv_fonts/lv_font_dejavu_20_latin_sup.o
LOAD ././lvgl/lv_misc/lv_fonts/lv_font_dejavu_20.o
LOAD ././lvgl/lv_misc/lv_fonts/lv_font_dejavu_40_cyrillic.o
LOAD ././lvgl/lv_misc/lv_fonts/lv_font_dejavu_40.o
LOAD ././lvgl/lv_misc/lv_fonts/lv_font_dejavu_10.o
LOAD ././lvgl/lv_misc/lv_area.o
LOAD ././mew.o
LOAD ././app/pwd_generator/mew_passgen.o
LOAD ././app/pwd_generator/mew_xor_algo.o
LOAD ././app/packet_parser/parser.o
LOAD ././debug.o
LOAD ././drivers/hw_crypt/P256-cortex-m4-ecdh-speedopt-gcc.o
LOAD /home/konata/devel/libopencm3/lib/libopencm3_stm32f4.a
START GROUP
LOAD /home/kaori/devel/stm32/gcc-arm-none-eabi-8-2018-q4-major/bin/../lib/gcc/arm-none-eabi/8.2.1/../../../../arm-none-eabi/lib/thumb/v7e-m+fp/hard/libc_nano.a
LOAD /home/kaori/devel/stm32/gcc-arm-none-eabi-8-2018-q4-major/bin/../lib/gcc/arm-none-eabi/8.2.1/thumb/v7e-m+fp/hard/libgcc.a
END GROUP
START GROUP
LOAD /home/kaori/devel/stm32/gcc-arm-none-eabi-8-2018-q4-major/bin/../lib/gcc/arm-none-eabi/8.2.1/thumb/v7e-m+fp/hard/libgcc.a
LOAD /home/kaori/devel/stm32/gcc-arm-none-eabi-8-2018-q4-major/bin/../lib/gcc/arm-none-eabi/8.2.1/../../../../arm-none-eabi/lib/thumb/v7e-m+fp/hard/libc_nano.a
END GROUP
START GROUP
LOAD /home/kaori/devel/stm32/gcc-arm-none-eabi-8-2018-q4-major/bin/../lib/gcc/arm-none-eabi/8.2.1/thumb/v7e-m+fp/hard/libgcc.a
LOAD /home/kaori/devel/stm32/gcc-arm-none-eabi-8-2018-q4-major/bin/../lib/gcc/arm-none-eabi/8.2.1/../../../../arm-none-eabi/lib/thumb/v7e-m+fp/hard/libc_nano.a
LOAD /home/kaori/devel/stm32/gcc-arm-none-eabi-8-2018-q4-major/bin/../lib/gcc/arm-none-eabi/8.2.1/../../../../arm-none-eabi/lib/thumb/v7e-m+fp/hard/libnosys.a
END GROUP
START GROUP
LOAD /home/kaori/devel/stm32/gcc-arm-none-eabi-8-2018-q4-major/bin/../lib/gcc/arm-none-eabi/8.2.1/thumb/v7e-m+fp/hard/libgcc.a
LOAD /home/kaori/devel/stm32/gcc-arm-none-eabi-8-2018-q4-major/bin/../lib/gcc/arm-none-eabi/8.2.1/../../../../arm-none-eabi/lib/thumb/v7e-m+fp/hard/libc_nano.a
LOAD /home/kaori/devel/stm32/gcc-arm-none-eabi-8-2018-q4-major/bin/../lib/gcc/arm-none-eabi/8.2.1/../../../../arm-none-eabi/lib/thumb/v7e-m+fp/hard/libnosys.a
END GROUP

.text           0x0000000008000000    0x1f500
 *(.vectors)
 .vectors       0x0000000008000000      0x1ac /home/konata/devel/libopencm3/lib/libopencm3_stm32f4.a(vector.o)
                0x0000000008000000                vector_table
 *(.text*)
 .text          0x00000000080001ac        0x0 ././ui/ui_lhandlers.o
 .text.mew_lvgl_lhandler
                0x00000000080001ac       0x28 ././ui/ui_lhandlers.o
                0x00000000080001ac                mew_lvgl_lhandler
 .text          0x00000000080001d4        0x0 ././ui/mew_logo.o
 .text          0x00000000080001d4        0x0 ././ui/pinpad.o
 .text.__mew_pinpad_action
                0x00000000080001d4       0xa0 ././ui/pinpad.o
 .text.mew_ui_get_pincode
                0x0000000008000274        0x8 ././ui/pinpad.o
                0x0000000008000274                mew_ui_get_pincode
 .text.mew_ui_show_pinpad
                0x000000000800027c      0x148 ././ui/pinpad.o
                0x000000000800027c                mew_ui_show_pinpad
 .text          0x00000000080003c4        0x0 ././drivers/display/ts_tsc2007.o
 .text.__mew_input_read
                0x00000000080003c4      0x108 ././drivers/display/ts_tsc2007.o
 .text.mew_touchscreen_init
                0x00000000080004cc       0x78 ././drivers/display/ts_tsc2007.o
                0x00000000080004cc                mew_touchscreen_init
 .text.exti2_isr
                0x0000000008000544       0x14 ././drivers/display/ts_tsc2007.o
                0x0000000008000544                exti2_isr
 .text          0x0000000008000558        0x0 ././drivers/display/display.o
 .text.__mew_cmd
                0x0000000008000558       0x28 ././drivers/display/display.o
 .text.__mew_display_write_cmd
                0x0000000008000580       0x24 ././drivers/display/display.o
 .text.__mew_data
                0x00000000080005a4       0x28 ././drivers/display/display.o
 .text.__mew_display_write_cmd_with_data
                0x00000000080005cc       0x4c ././drivers/display/display.o
 .text.__mew_spi_init_non_dma
                0x0000000008000618       0x7c ././drivers/display/display.o
 .text.__mew_display_flush
                0x0000000008000694      0x19c ././drivers/display/display.o
 .text.mew_display_init
                0x0000000008000830      0x2d4 ././drivers/display/display.o
                0x0000000008000830                mew_display_init
 .text.dma1_stream4_isr
                0x0000000008000b04       0x4c ././drivers/display/display.o
                0x0000000008000b04                dma1_stream4_isr
 .text          0x0000000008000b50        0x0 ././drivers/bluetooth/bt_usart.o
 .text.mew_bluetooth_transmit
                0x0000000008000b50       0xe4 ././drivers/bluetooth/bt_usart.o
                0x0000000008000b50                mew_bluetooth_transmit
 .text.dma2_stream7_isr
                0x0000000008000c34       0x24 ././drivers/bluetooth/bt_usart.o
                0x0000000008000c34                dma2_stream7_isr
 .text.mew_bluetooth_transmit_string
                0x0000000008000c58       0x18 ././drivers/bluetooth/bt_usart.o
                0x0000000008000c58                mew_bluetooth_transmit_string
 .text.usart1_isr
                0x0000000008000c70       0x8c ././drivers/bluetooth/bt_usart.o
                0x0000000008000c70                usart1_isr
 .text.mew_bluetooth_execute_at
                0x0000000008000cfc       0x88 ././drivers/bluetooth/bt_usart.o
                0x0000000008000cfc                mew_bluetooth_execute_at
 .text.mew_bluetooth_init
                0x0000000008000d84      0x11c ././drivers/bluetooth/bt_usart.o
                0x0000000008000d84                mew_bluetooth_init
 .text          0x0000000008000ea0        0x0 ././drivers/flash/otp_storage.o
 .text.mew_otp_storage_init
                0x0000000008000ea0      0x10c ././drivers/flash/otp_storage.o
                0x0000000008000ea0                mew_otp_storage_init
 .text          0x0000000008000fac        0x0 ././drivers/system/clock.o
 .text.mew_clock_init
                0x0000000008000fac       0xa0 ././drivers/system/clock.o
                0x0000000008000fac                mew_clock_init
 .text          0x000000000800104c        0x0 ././drivers/system/systick.o
 .text.mew_systick_init
                0x000000000800104c       0x20 ././drivers/system/systick.o
                0x000000000800104c                mew_systick_init
 .text.mew_get_millis
                0x000000000800106c        0xc ././drivers/system/systick.o
                0x000000000800106c                mew_get_millis
 .text.mew_delay_ms
                0x0000000008001078       0x1c ././drivers/system/systick.o
                0x0000000008001078                mew_delay_ms
 .text.sys_tick_handler
                0x0000000008001094       0x14 ././drivers/system/systick.o
                0x0000000008001094                sys_tick_handler
 .text          0x00000000080010a8        0x0 ././drivers/system/random.o
 .text.mew_rng_init
                0x00000000080010a8       0x1c ././drivers/system/random.o
                0x00000000080010a8                mew_rng_init
 .text.mew_random32
                0x00000000080010c4       0x3c ././drivers/system/random.o
                0x00000000080010c4                mew_random32
 .text.mew_random64
                0x0000000008001100       0x5c ././drivers/system/random.o
                0x0000000008001100                mew_random64
 .text          0x000000000800115c        0x0 ././drivers/system/system.o
 .text.mew_check_dma_memory
                0x000000000800115c        0x4 ././drivers/system/system.o
                0x000000000800115c                mew_check_dma_memory
 .text.mew_wait_for_state
                0x0000000008001160       0x28 ././drivers/system/system.o
                0x0000000008001160                mew_wait_for_state
 .text          0x0000000008001188        0x0 ././drivers/spi_flash/w25n01gvzeig.o
 .text.mew_flash_get_id
                0x0000000008001188       0x30 ././drivers/spi_flash/w25n01gvzeig.o
                0x0000000008001188                mew_flash_get_id
 .text          0x00000000080011b8        0x0 ././drivers/spi_flash/flash.o
 .text.mew_spi_flash_init
                0x00000000080011b8      0x11c ././drivers/spi_flash/flash.o
                0x00000000080011b8                mew_spi_flash_init
 .text.mew_spi_flash_xfer
                0x00000000080012d4       0x40 ././drivers/spi_flash/flash.o
                0x00000000080012d4                mew_spi_flash_xfer
 .text          0x0000000008001314        0x0 ././drivers/duart/duart.o
 .text.mew_init_duart
                0x0000000008001314       0x6c ././drivers/duart/duart.o
                0x0000000008001314                mew_init_duart
 .text.mew_duart_print
                0x0000000008001380       0x3c ././drivers/duart/duart.o
                0x0000000008001380                mew_duart_print
 .text.mew_duart_print_hex
                0x00000000080013bc       0xa0 ././drivers/duart/duart.o
                0x00000000080013bc                mew_duart_print_hex
 .text.__mew_to_hex
                0x000000000800145c       0x18 ././drivers/duart/duart.o
                0x000000000800145c                __mew_to_hex
 .text          0x0000000008001474        0x0 ././drivers/i2c/i2c.o
 .text.mew_i2c_init
                0x0000000008001474       0x88 ././drivers/i2c/i2c.o
                0x0000000008001474                mew_i2c_init
 .text.mew_i2c_read_block_ts2007
                0x00000000080014fc      0x124 ././drivers/i2c/i2c.o
                0x00000000080014fc                mew_i2c_read_block_ts2007
 .text.mew_i2c_read
                0x0000000008001620       0xb0 ././drivers/i2c/i2c.o
                0x0000000008001620                mew_i2c_read
 .text.mew_i2c_write
                0x00000000080016d0       0x90 ././drivers/i2c/i2c.o
                0x00000000080016d0                mew_i2c_write
 .text          0x0000000008001760        0x0 ././drivers/usb/mew_usb_hid.o
 .text.hid_control_request
                0x0000000008001760       0x28 ././drivers/usb/mew_usb_hid.o
 .text.hid_set_config
                0x0000000008001788       0x38 ././drivers/usb/mew_usb_hid.o
 .text.mew_hid_usb_disable
                0x00000000080017c0       0x40 ././drivers/usb/mew_usb_hid.o
                0x00000000080017c0                mew_hid_usb_disable
 .text.mew_hid_usb_init
                0x0000000008001800       0x78 ././drivers/usb/mew_usb_hid.o
                0x0000000008001800                mew_hid_usb_init
 .text.mew_hid_send
                0x0000000008001878       0x2c ././drivers/usb/mew_usb_hid.o
                0x0000000008001878                mew_hid_send
 .text.mew_hid_send_char
                0x00000000080018a4       0x5c ././drivers/usb/mew_usb_hid.o
                0x00000000080018a4                mew_hid_send_char
 .text.otg_fs_isr
                0x0000000008001900        0xc ././drivers/usb/mew_usb_hid.o
                0x0000000008001900                otg_fs_isr
 .text          0x000000000800190c        0x0 ././drivers/hw_crypt/aes256.o
 .text.mewcrypt_aes256
                0x000000000800190c      0x2c8 ././drivers/hw_crypt/aes256.o
                0x000000000800190c                mewcrypt_aes256
 .text.dma2_stream5_isr
                0x0000000008001bd4       0x24 ././drivers/hw_crypt/aes256.o
                0x0000000008001bd4                dma2_stream5_isr
 .text.dma2_stream6_isr
                0x0000000008001bf8       0x24 ././drivers/hw_crypt/aes256.o
                0x0000000008001bf8                dma2_stream6_isr
 .text          0x0000000008001c1c        0x0 ././drivers/hw_crypt/P256-cortex-ecdh.o
 .text.mew_p256_ecdh_get_session_pubkey
                0x0000000008001c1c       0x2c ././drivers/hw_crypt/P256-cortex-ecdh.o
                0x0000000008001c1c                mew_p256_ecdh_get_session_pubkey
 .text.mew_p256_ecdh_handler
                0x0000000008001c48       0x34 ././drivers/hw_crypt/P256-cortex-ecdh.o
                0x0000000008001c48                mew_p256_ecdh_handler
 .text          0x0000000008001c7c        0x0 ././drivers/hw_crypt/sha2_256.o
 .text.mew_hash32
                0x0000000008001c7c       0x78 ././drivers/hw_crypt/sha2_256.o
                0x0000000008001c7c                mew_hash32
 .text.mew_hash8
                0x0000000008001cf4       0xac ././drivers/hw_crypt/sha2_256.o
                0x0000000008001cf4                mew_hash8
 .text          0x0000000008001da0        0x0 ././lvgl/lv_core/lv_obj.o
 .text.refresh_childen_position
                0x0000000008001da0       0x50 ././lvgl/lv_core/lv_obj.o
 .text.delete_children
                0x0000000008001df0       0x94 ././lvgl/lv_core/lv_obj.o
 .text.lv_obj_invalidate
                0x0000000008001e84       0xac ././lvgl/lv_core/lv_obj.o
                0x0000000008001e84                lv_obj_invalidate
 .text.lv_obj_del
                0x0000000008001f30       0xc8 ././lvgl/lv_core/lv_obj.o
                0x0000000008001f30                lv_obj_del
 .text.lv_scr_load
                0x0000000008001ff8        0xc ././lvgl/lv_core/lv_obj.o
                0x0000000008001ff8                lv_scr_load
 .text.lv_obj_set_pos
                0x0000000008002004       0x8c ././lvgl/lv_core/lv_obj.o
                0x0000000008002004                lv_obj_set_pos
 .text.lv_obj_set_x
                0x0000000008002090       0x14 ././lvgl/lv_core/lv_obj.o
                0x0000000008002090                lv_obj_set_x
 .text.lv_obj_set_y
                0x00000000080020a4       0x18 ././lvgl/lv_core/lv_obj.o
                0x00000000080020a4                lv_obj_set_y
 .text.lv_obj_create
                0x00000000080020bc      0x180 ././lvgl/lv_core/lv_obj.o
                0x00000000080020bc                lv_obj_create
 .text.lv_obj_set_parent
                0x000000000800223c       0x58 ././lvgl/lv_core/lv_obj.o
                0x000000000800223c                lv_obj_set_parent
 .text.lv_obj_set_size
                0x0000000008002294       0x68 ././lvgl/lv_core/lv_obj.o
                0x0000000008002294                lv_obj_set_size
 .text.lv_obj_set_width
                0x00000000080022fc       0x10 ././lvgl/lv_core/lv_obj.o
                0x00000000080022fc                lv_obj_set_width
 .text.lv_obj_set_height
                0x000000000800230c       0x10 ././lvgl/lv_core/lv_obj.o
                0x000000000800230c                lv_obj_set_height
 .text.lv_obj_align
                0x000000000800231c      0x3ac ././lvgl/lv_core/lv_obj.o
                0x000000000800231c                lv_obj_align
 .text.lv_obj_refresh_style
                0x00000000080026c8       0x1c ././lvgl/lv_core/lv_obj.o
                0x00000000080026c8                lv_obj_refresh_style
 .text.refresh_childen_style
                0x00000000080026e4       0x3c ././lvgl/lv_core/lv_obj.o
 .text.lv_obj_set_style
                0x0000000008002720       0x14 ././lvgl/lv_core/lv_obj.o
                0x0000000008002720                lv_obj_set_style
 .text.report_style_mod_core
                0x0000000008002734       0x3c ././lvgl/lv_core/lv_obj.o
 .text.lv_init  0x0000000008002770       0x90 ././lvgl/lv_core/lv_obj.o
                0x0000000008002770                lv_init
 .text.lv_obj_report_style_mod
                0x0000000008002800       0x2c ././lvgl/lv_core/lv_obj.o
                0x0000000008002800                lv_obj_report_style_mod
 .text.lv_obj_set_hidden
                0x000000000800282c       0x3c ././lvgl/lv_core/lv_obj.o
                0x000000000800282c                lv_obj_set_hidden
 .text.lv_obj_set_click
                0x0000000008002868       0x10 ././lvgl/lv_core/lv_obj.o
                0x0000000008002868                lv_obj_set_click
 .text.lv_obj_set_top
                0x0000000008002878       0x10 ././lvgl/lv_core/lv_obj.o
                0x0000000008002878                lv_obj_set_top
 .text.lv_obj_set_drag
                0x0000000008002888       0x1c ././lvgl/lv_core/lv_obj.o
                0x0000000008002888                lv_obj_set_drag
 .text.lv_obj_set_drag_throw
                0x00000000080028a4       0x10 ././lvgl/lv_core/lv_obj.o
                0x00000000080028a4                lv_obj_set_drag_throw
 .text.lv_obj_set_drag_parent
                0x00000000080028b4       0x10 ././lvgl/lv_core/lv_obj.o
                0x00000000080028b4                lv_obj_set_drag_parent
 .text.lv_obj_set_protect
                0x00000000080028c4        0xc ././lvgl/lv_core/lv_obj.o
                0x00000000080028c4                lv_obj_set_protect
 .text.lv_obj_clear_protect
                0x00000000080028d0       0x10 ././lvgl/lv_core/lv_obj.o
                0x00000000080028d0                lv_obj_clear_protect
 .text.lv_obj_set_signal_func
                0x00000000080028e0        0x4 ././lvgl/lv_core/lv_obj.o
                0x00000000080028e0                lv_obj_set_signal_func
 .text.lv_obj_set_design_func
                0x00000000080028e4        0x4 ././lvgl/lv_core/lv_obj.o
                0x00000000080028e4                lv_obj_set_design_func
 .text.lv_obj_allocate_ext_attr
                0x00000000080028e8       0x10 ././lvgl/lv_core/lv_obj.o
                0x00000000080028e8                lv_obj_allocate_ext_attr
 .text.lv_obj_refresh_ext_size
                0x00000000080028f8       0x18 ././lvgl/lv_core/lv_obj.o
                0x00000000080028f8                lv_obj_refresh_ext_size
 .text.lv_obj_set_free_num
                0x0000000008002910        0x4 ././lvgl/lv_core/lv_obj.o
                0x0000000008002910                lv_obj_set_free_num
 .text.lv_obj_set_free_ptr
                0x0000000008002914        0x4 ././lvgl/lv_core/lv_obj.o
                0x0000000008002914                lv_obj_set_free_ptr
 .text.lv_obj_animate
                0x0000000008002918       0xdc ././lvgl/lv_core/lv_obj.o
                0x0000000008002918                lv_obj_animate
 .text.lv_scr_act
                0x00000000080029f4        0xc ././lvgl/lv_core/lv_obj.o
                0x00000000080029f4                lv_scr_act
 .text.lv_layer_top
                0x0000000008002a00        0xc ././lvgl/lv_core/lv_obj.o
                0x0000000008002a00                lv_layer_top
 .text.lv_layer_sys
                0x0000000008002a0c        0xc ././lvgl/lv_core/lv_obj.o
                0x0000000008002a0c                lv_layer_sys
 .text.lv_obj_get_screen
                0x0000000008002a18        0xc ././lvgl/lv_core/lv_obj.o
                0x0000000008002a18                lv_obj_get_screen
 .text.lv_obj_get_parent
                0x0000000008002a24        0x4 ././lvgl/lv_core/lv_obj.o
                0x0000000008002a24                lv_obj_get_parent
 .text.lv_obj_get_child
                0x0000000008002a28        0xc ././lvgl/lv_core/lv_obj.o
                0x0000000008002a28                lv_obj_get_child
 .text.lv_obj_clean
                0x0000000008002a34       0x24 ././lvgl/lv_core/lv_obj.o
                0x0000000008002a34                lv_obj_clean
 .text.lv_obj_get_child_back
                0x0000000008002a58        0xc ././lvgl/lv_core/lv_obj.o
                0x0000000008002a58                lv_obj_get_child_back
 .text.lv_obj_count_children
                0x0000000008002a64       0x28 ././lvgl/lv_core/lv_obj.o
                0x0000000008002a64                lv_obj_count_children
 .text.lv_obj_get_coords
                0x0000000008002a8c        0xc ././lvgl/lv_core/lv_obj.o
                0x0000000008002a8c                lv_obj_get_coords
 .text.lv_obj_get_x
                0x0000000008002a98        0xc ././lvgl/lv_core/lv_obj.o
                0x0000000008002a98                lv_obj_get_x
 .text.lv_obj_get_y
                0x0000000008002aa4        0xc ././lvgl/lv_core/lv_obj.o
                0x0000000008002aa4                lv_obj_get_y
 .text.lv_obj_get_width
                0x0000000008002ab0        0xc ././lvgl/lv_core/lv_obj.o
                0x0000000008002ab0                lv_obj_get_width
 .text.lv_obj_get_height
                0x0000000008002abc        0xc ././lvgl/lv_core/lv_obj.o
                0x0000000008002abc                lv_obj_get_height
 .text.lv_obj_get_ext_size
                0x0000000008002ac8        0x8 ././lvgl/lv_core/lv_obj.o
                0x0000000008002ac8                lv_obj_get_ext_size
 .text.lv_obj_get_style
                0x0000000008002ad0       0x78 ././lvgl/lv_core/lv_obj.o
                0x0000000008002ad0                lv_obj_get_style
 .text.lv_obj_design
                0x0000000008002b48       0x98 ././lvgl/lv_core/lv_obj.o
 .text.lv_obj_signal
                0x0000000008002be0       0x60 ././lvgl/lv_core/lv_obj.o
 .text.lv_obj_get_hidden
                0x0000000008002c40        0xc ././lvgl/lv_core/lv_obj.o
                0x0000000008002c40                lv_obj_get_hidden
 .text.lv_obj_get_click
                0x0000000008002c4c        0xc ././lvgl/lv_core/lv_obj.o
                0x0000000008002c4c                lv_obj_get_click
 .text.lv_obj_get_top
                0x0000000008002c58        0xc ././lvgl/lv_core/lv_obj.o
                0x0000000008002c58                lv_obj_get_top
 .text.lv_obj_get_drag
                0x0000000008002c64        0xc ././lvgl/lv_core/lv_obj.o
                0x0000000008002c64                lv_obj_get_drag
 .text.lv_obj_get_drag_throw
                0x0000000008002c70        0xc ././lvgl/lv_core/lv_obj.o
                0x0000000008002c70                lv_obj_get_drag_throw
 .text.lv_obj_get_drag_parent
                0x0000000008002c7c        0xc ././lvgl/lv_core/lv_obj.o
                0x0000000008002c7c                lv_obj_get_drag_parent
 .text.lv_obj_get_protect
                0x0000000008002c88        0x8 ././lvgl/lv_core/lv_obj.o
                0x0000000008002c88                lv_obj_get_protect
 .text.lv_obj_is_protected
                0x0000000008002c90       0x10 ././lvgl/lv_core/lv_obj.o
                0x0000000008002c90                lv_obj_is_protected
 .text.lv_obj_get_signal_func
                0x0000000008002ca0        0x4 ././lvgl/lv_core/lv_obj.o
                0x0000000008002ca0                lv_obj_get_signal_func
 .text.lv_obj_get_design_func
                0x0000000008002ca4        0x4 ././lvgl/lv_core/lv_obj.o
                0x0000000008002ca4                lv_obj_get_design_func
 .text.lv_obj_get_ext_attr
                0x0000000008002ca8        0x4 ././lvgl/lv_core/lv_obj.o
                0x0000000008002ca8                lv_obj_get_ext_attr
 .text.lv_obj_get_type
                0x0000000008002cac       0x64 ././lvgl/lv_core/lv_obj.o
                0x0000000008002cac                lv_obj_get_type
 .text.lv_obj_get_free_num
                0x0000000008002d10        0x4 ././lvgl/lv_core/lv_obj.o
                0x0000000008002d10                lv_obj_get_free_num
 .text.lv_obj_get_free_ptr
                0x0000000008002d14        0x4 ././lvgl/lv_core/lv_obj.o
                0x0000000008002d14                lv_obj_get_free_ptr
 .text.lv_obj_get_group
                0x0000000008002d18        0x4 ././lvgl/lv_core/lv_obj.o
                0x0000000008002d18                lv_obj_get_group
 .text          0x0000000008002d1c        0x0 ././lvgl/lv_core/lv_group.o
 .text.style_mod_def
                0x0000000008002d1c      0x1b8 ././lvgl/lv_core/lv_group.o
 .text.lv_group_focus_next.part.0
                0x0000000008002ed4       0x5c ././lvgl/lv_core/lv_group.o
 .text.lv_group_create
                0x0000000008002f30       0x30 ././lvgl/lv_core/lv_group.o
                0x0000000008002f30                lv_group_create
 .text.lv_group_del
                0x0000000008002f60       0x44 ././lvgl/lv_core/lv_group.o
                0x0000000008002f60                lv_group_del
 .text.lv_group_add_obj
                0x0000000008002fa4       0x30 ././lvgl/lv_core/lv_group.o
                0x0000000008002fa4                lv_group_add_obj
 .text.lv_group_remove_obj
                0x0000000008002fd4       0x60 ././lvgl/lv_core/lv_group.o
                0x0000000008002fd4                lv_group_remove_obj
 .text.lv_group_focus_obj
                0x0000000008003034       0x6c ././lvgl/lv_core/lv_group.o
                0x0000000008003034                lv_group_focus_obj
 .text.lv_group_focus_next
                0x00000000080030a0       0x10 ././lvgl/lv_core/lv_group.o
                0x00000000080030a0                lv_group_focus_next
 .text.lv_group_focus_prev
                0x00000000080030b0       0x68 ././lvgl/lv_core/lv_group.o
                0x00000000080030b0                lv_group_focus_prev
 .text.lv_group_focus_freeze
                0x0000000008003118       0x10 ././lvgl/lv_core/lv_group.o
                0x0000000008003118                lv_group_focus_freeze
 .text.lv_group_send_data
                0x0000000008003128       0x20 ././lvgl/lv_core/lv_group.o
                0x0000000008003128                lv_group_send_data
 .text.lv_group_set_style_mod_cb
                0x0000000008003148       0x10 ././lvgl/lv_core/lv_group.o
                0x0000000008003148                lv_group_set_style_mod_cb
 .text.lv_group_set_focus_cb
                0x0000000008003158        0x4 ././lvgl/lv_core/lv_group.o
                0x0000000008003158                lv_group_set_focus_cb
 .text.lv_group_mod_style
                0x000000000800315c       0x24 ././lvgl/lv_core/lv_group.o
                0x000000000800315c                lv_group_mod_style
 .text.lv_group_get_focused
                0x0000000008003180        0xc ././lvgl/lv_core/lv_group.o
                0x0000000008003180                lv_group_get_focused
 .text.lv_group_get_style_mod_cb
                0x000000000800318c        0x4 ././lvgl/lv_core/lv_group.o
                0x000000000800318c                lv_group_get_style_mod_cb
 .text.lv_group_get_focus_cb
                0x0000000008003190        0x4 ././lvgl/lv_core/lv_group.o
                0x0000000008003190                lv_group_get_focus_cb
 .text          0x0000000008003194        0x0 ././lvgl/lv_core/lv_vdb.o
 .text.lv_vdb_get
                0x0000000008003194       0x14 ././lvgl/lv_core/lv_vdb.o
                0x0000000008003194                lv_vdb_get
 .text.lv_vdb_flush
                0x00000000080031a8       0x38 ././lvgl/lv_core/lv_vdb.o
                0x00000000080031a8                lv_vdb_flush
 .text.lv_flush_ready
                0x00000000080031e0        0xc ././lvgl/lv_core/lv_vdb.o
                0x00000000080031e0                lv_flush_ready
 .text          0x00000000080031ec        0x0 ././lvgl/lv_core/lv_style.o
 .text.style_animation_common_end_cb
                0x00000000080031ec       0x14 ././lvgl/lv_core/lv_style.o
 .text.style_animator
                0x0000000008003200      0x4d8 ././lvgl/lv_core/lv_style.o
 .text.lv_style_init
                0x00000000080036d8      0x388 ././lvgl/lv_core/lv_style.o
                0x00000000080036d8                lv_style_init
 .text.lv_style_copy
                0x0000000008003a60       0x30 ././lvgl/lv_core/lv_style.o
                0x0000000008003a60                lv_style_copy
 .text.lv_style_anim_create
                0x0000000008003a90       0xc4 ././lvgl/lv_core/lv_style.o
                0x0000000008003a90                lv_style_anim_create
 .text          0x0000000008003b54        0x0 ././lvgl/lv_core/lv_indev.o
 .text.indev_search_obj
                0x0000000008003b54       0x60 ././lvgl/lv_core/lv_indev.o
 .text.indev_proc_press
                0x0000000008003bb4      0x280 ././lvgl/lv_core/lv_indev.o
 .text.indev_proc_release
                0x0000000008003e34      0x148 ././lvgl/lv_core/lv_indev.o
 .text.lv_indev_reset.part.5
                0x0000000008003f7c       0x20 ././lvgl/lv_core/lv_indev.o
 .text.indev_proc_task
                0x0000000008003f9c      0x1f0 ././lvgl/lv_core/lv_indev.o
 .text.lv_indev_init
                0x000000000800418c       0x1c ././lvgl/lv_core/lv_indev.o
                0x000000000800418c                lv_indev_init
 .text.lv_indev_get_act
                0x00000000080041a8        0xc ././lvgl/lv_core/lv_indev.o
                0x00000000080041a8                lv_indev_get_act
 .text.lv_indev_reset
                0x00000000080041b4       0x14 ././lvgl/lv_core/lv_indev.o
                0x00000000080041b4                lv_indev_reset
 .text.lv_indev_reset_lpr
                0x00000000080041c8       0x20 ././lvgl/lv_core/lv_indev.o
                0x00000000080041c8                lv_indev_reset_lpr
 .text.lv_indev_enable
                0x00000000080041e8       0x34 ././lvgl/lv_core/lv_indev.o
                0x00000000080041e8                lv_indev_enable
 .text.lv_indev_set_cursor
                0x000000000800421c       0x34 ././lvgl/lv_core/lv_indev.o
                0x000000000800421c                lv_indev_set_cursor
 .text.lv_indev_set_group
                0x0000000008004250        0xc ././lvgl/lv_core/lv_indev.o
                0x0000000008004250                lv_indev_set_group
 .text.lv_indev_set_button_points
                0x000000000800425c        0xc ././lvgl/lv_core/lv_indev.o
                0x000000000800425c                lv_indev_set_button_points
 .text.lv_indev_get_point
                0x0000000008004268       0x20 ././lvgl/lv_core/lv_indev.o
                0x0000000008004268                lv_indev_get_point
 .text.lv_indev_is_dragging
                0x0000000008004288       0x1c ././lvgl/lv_core/lv_indev.o
                0x0000000008004288                lv_indev_is_dragging
 .text.lv_indev_get_vect
                0x00000000080042a4       0x20 ././lvgl/lv_core/lv_indev.o
                0x00000000080042a4                lv_indev_get_vect
 .text.lv_indev_get_inactive_time
                0x00000000080042c4       0x48 ././lvgl/lv_core/lv_indev.o
                0x00000000080042c4                lv_indev_get_inactive_time
 .text.lv_indev_wait_release
                0x000000000800430c       0x10 ././lvgl/lv_core/lv_indev.o
                0x000000000800430c                lv_indev_wait_release
 .text          0x000000000800431c        0x0 ././lvgl/lv_core/lv_refr.o
 .text.lv_refr_get_top_obj
                0x000000000800431c       0x5c ././lvgl/lv_core/lv_refr.o
 .text.lv_refr_obj.part.2
                0x0000000008004378       0xfc ././lvgl/lv_core/lv_refr.o
 .text.lv_refr_obj_and_children
                0x0000000008004474       0x90 ././lvgl/lv_core/lv_refr.o
 .text.lv_refr_area_part_vdb
                0x0000000008004504       0x44 ././lvgl/lv_core/lv_refr.o
 .text.lv_refr_task
                0x0000000008004548      0x1f8 ././lvgl/lv_core/lv_refr.o
 .text.lv_refr_init
                0x0000000008004740       0x34 ././lvgl/lv_core/lv_refr.o
                0x0000000008004740                lv_refr_init
 .text.lv_inv_area
                0x0000000008004774       0x94 ././lvgl/lv_core/lv_refr.o
                0x0000000008004774                lv_inv_area
 .text.lv_refr_set_monitor_cb
                0x0000000008004808        0xc ././lvgl/lv_core/lv_refr.o
                0x0000000008004808                lv_refr_set_monitor_cb
 .text.lv_refr_set_round_cb
                0x0000000008004814        0xc ././lvgl/lv_core/lv_refr.o
                0x0000000008004814                lv_refr_set_round_cb
 .text.lv_refr_get_buf_size
                0x0000000008004820        0xc ././lvgl/lv_core/lv_refr.o
                0x0000000008004820                lv_refr_get_buf_size
 .text.lv_refr_pop_from_buf
                0x000000000800482c       0x18 ././lvgl/lv_core/lv_refr.o
                0x000000000800482c                lv_refr_pop_from_buf
 .text          0x0000000008004844        0x0 ././lvgl/lv_objx/lv_kb.o
 .text.lv_kb_signal
                0x0000000008004844       0x38 ././lvgl/lv_objx/lv_kb.o
 .text.lv_kb_create
                0x000000000800487c      0x10c ././lvgl/lv_objx/lv_kb.o
                0x000000000800487c                lv_kb_create
 .text.lv_kb_set_ta
                0x0000000008004988       0x4c ././lvgl/lv_objx/lv_kb.o
                0x0000000008004988                lv_kb_set_ta
 .text.lv_app_kb_action
                0x00000000080049d4      0x1b0 ././lvgl/lv_objx/lv_kb.o
 .text.lv_kb_set_mode
                0x0000000008004b84       0x40 ././lvgl/lv_objx/lv_kb.o
                0x0000000008004b84                lv_kb_set_mode
 .text.lv_kb_set_cursor_manage
                0x0000000008004bc4       0x50 ././lvgl/lv_objx/lv_kb.o
                0x0000000008004bc4                lv_kb_set_cursor_manage
 .text.lv_kb_set_ok_action
                0x0000000008004c14        0xc ././lvgl/lv_objx/lv_kb.o
                0x0000000008004c14                lv_kb_set_ok_action
 .text.lv_kb_set_hide_action
                0x0000000008004c20        0xc ././lvgl/lv_objx/lv_kb.o
                0x0000000008004c20                lv_kb_set_hide_action
 .text.lv_kb_set_style
                0x0000000008004c2c       0x34 ././lvgl/lv_objx/lv_kb.o
                0x0000000008004c2c                lv_kb_set_style
 .text.lv_kb_get_ta
                0x0000000008004c60        0xc ././lvgl/lv_objx/lv_kb.o
                0x0000000008004c60                lv_kb_get_ta
 .text.lv_kb_get_mode
                0x0000000008004c6c        0xc ././lvgl/lv_objx/lv_kb.o
                0x0000000008004c6c                lv_kb_get_mode
 .text.lv_kb_get_cursor_manage
                0x0000000008004c78       0x10 ././lvgl/lv_objx/lv_kb.o
                0x0000000008004c78                lv_kb_get_cursor_manage
 .text.lv_kb_get_ok_action
                0x0000000008004c88        0xc ././lvgl/lv_objx/lv_kb.o
                0x0000000008004c88                lv_kb_get_ok_action
 .text.lv_kb_get_hide_action
                0x0000000008004c94        0xc ././lvgl/lv_objx/lv_kb.o
                0x0000000008004c94                lv_kb_get_hide_action
 .text.lv_kb_get_style
                0x0000000008004ca0       0x38 ././lvgl/lv_objx/lv_kb.o
                0x0000000008004ca0                lv_kb_get_style
 .text          0x0000000008004cd8        0x0 ././lvgl/lv_objx/lv_sw.o
 .text.lv_sw_on
                0x0000000008004cd8       0x2c ././lvgl/lv_objx/lv_sw.o
                0x0000000008004cd8                lv_sw_on
 .text.lv_sw_off
                0x0000000008004d04       0x2c ././lvgl/lv_objx/lv_sw.o
                0x0000000008004d04                lv_sw_off
 .text.lv_sw_signal
                0x0000000008004d30      0x18c ././lvgl/lv_objx/lv_sw.o
 .text.lv_sw_set_style
                0x0000000008004ebc       0x5c ././lvgl/lv_objx/lv_sw.o
                0x0000000008004ebc                lv_sw_set_style
 .text.lv_sw_create
                0x0000000008004f18       0xd8 ././lvgl/lv_objx/lv_sw.o
                0x0000000008004f18                lv_sw_create
 .text.lv_sw_get_style
                0x0000000008004ff0       0x3c ././lvgl/lv_objx/lv_sw.o
                0x0000000008004ff0                lv_sw_get_style
 .text          0x000000000800502c        0x0 ././lvgl/lv_objx/lv_img.o
 .text.lv_img_design
                0x000000000800502c      0x10c ././lvgl/lv_objx/lv_img.o
 .text.lv_img_set_src
                0x0000000008005138      0x1b4 ././lvgl/lv_objx/lv_img.o
                0x0000000008005138                lv_img_set_src
 .text.lv_img_create
                0x00000000080052ec       0xc8 ././lvgl/lv_objx/lv_img.o
                0x00000000080052ec                lv_img_create
 .text.lv_img_signal
                0x00000000080053b4       0x88 ././lvgl/lv_objx/lv_img.o
 .text.lv_img_set_auto_size
                0x000000000800543c       0x14 ././lvgl/lv_objx/lv_img.o
                0x000000000800543c                lv_img_set_auto_size
 .text.lv_img_get_src_type
                0x0000000008005450       0x28 ././lvgl/lv_objx/lv_img.o
                0x0000000008005450                lv_img_get_src_type
 .text.lv_img_get_file_name
                0x0000000008005478       0x1c ././lvgl/lv_objx/lv_img.o
                0x0000000008005478                lv_img_get_file_name
 .text.lv_img_get_auto_size
                0x0000000008005494       0x10 ././lvgl/lv_objx/lv_img.o
                0x0000000008005494                lv_img_get_auto_size
 .text          0x00000000080054a4        0x0 ././lvgl/lv_objx/lv_slider.o
 .text.lv_slider_set_action
                0x00000000080054a4        0xc ././lvgl/lv_objx/lv_slider.o
                0x00000000080054a4                lv_slider_set_action
 .text.lv_slider_set_knob_in
                0x00000000080054b0       0x28 ././lvgl/lv_objx/lv_slider.o
                0x00000000080054b0                lv_slider_set_knob_in
 .text.lv_slider_set_style
                0x00000000080054d8       0x40 ././lvgl/lv_objx/lv_slider.o
                0x00000000080054d8                lv_slider_set_style
 .text.lv_slider_create
                0x0000000008005518       0xf8 ././lvgl/lv_objx/lv_slider.o
                0x0000000008005518                lv_slider_create
 .text.lv_slider_get_value
                0x0000000008005610       0x20 ././lvgl/lv_objx/lv_slider.o
                0x0000000008005610                lv_slider_get_value
 .text.lv_slider_design
                0x0000000008005630      0x31c ././lvgl/lv_objx/lv_slider.o
 .text.lv_slider_signal
                0x000000000800594c      0x234 ././lvgl/lv_objx/lv_slider.o
 .text.lv_slider_get_action
                0x0000000008005b80        0xc ././lvgl/lv_objx/lv_slider.o
                0x0000000008005b80                lv_slider_get_action
 .text.lv_slider_is_dragged
                0x0000000008005b8c       0x14 ././lvgl/lv_objx/lv_slider.o
                0x0000000008005b8c                lv_slider_is_dragged
 .text.lv_slider_get_knob_in
                0x0000000008005ba0       0x10 ././lvgl/lv_objx/lv_slider.o
                0x0000000008005ba0                lv_slider_get_knob_in
 .text.lv_slider_get_style
                0x0000000008005bb0       0x2c ././lvgl/lv_objx/lv_slider.o
                0x0000000008005bb0                lv_slider_get_style
 .text          0x0000000008005bdc        0x0 ././lvgl/lv_objx/lv_ta.o
 .text.pwd_char_hider_anim
                0x0000000008005bdc        0x4 ././lvgl/lv_objx/lv_ta.o
 .text.cursor_blink_anim
                0x0000000008005be0       0x3c ././lvgl/lv_objx/lv_ta.o
 .text.pwd_char_hider
                0x0000000008005c1c       0x48 ././lvgl/lv_objx/lv_ta.o
 .text.lv_ta_design
                0x0000000008005c64       0x24 ././lvgl/lv_objx/lv_ta.o
 .text.lv_ta_scrollable_signal
                0x0000000008005c88       0x48 ././lvgl/lv_objx/lv_ta.o
 .text.lv_ta_scrollable_design
                0x0000000008005cd0      0x36c ././lvgl/lv_objx/lv_ta.o
 .text.lv_ta_set_cursor_pos
                0x000000000800603c      0x178 ././lvgl/lv_objx/lv_ta.o
                0x000000000800603c                lv_ta_set_cursor_pos
 .text.lv_ta_del_char
                0x00000000080061b4       0x94 ././lvgl/lv_objx/lv_ta.o
                0x00000000080061b4                lv_ta_del_char
 .text.lv_ta_set_text
                0x0000000008006248       0xac ././lvgl/lv_objx/lv_ta.o
                0x0000000008006248                lv_ta_set_text
 .text.lv_ta_add_char
                0x00000000080062f4       0xa8 ././lvgl/lv_objx/lv_ta.o
                0x00000000080062f4                lv_ta_add_char
 .text.lv_ta_add_text
                0x000000000800639c       0xb8 ././lvgl/lv_objx/lv_ta.o
                0x000000000800639c                lv_ta_add_text
 .text.lv_ta_set_cursor_type
                0x0000000008006454       0x24 ././lvgl/lv_objx/lv_ta.o
                0x0000000008006454                lv_ta_set_cursor_type
 .text.lv_ta_set_pwd_mode
                0x0000000008006478       0x8c ././lvgl/lv_objx/lv_ta.o
                0x0000000008006478                lv_ta_set_pwd_mode
 .text.lv_ta_set_one_line
                0x0000000008006504       0xe4 ././lvgl/lv_objx/lv_ta.o
                0x0000000008006504                lv_ta_set_one_line
 .text.lv_ta_set_style
                0x00000000080065e8       0x44 ././lvgl/lv_objx/lv_ta.o
                0x00000000080065e8                lv_ta_set_style
 .text.lv_ta_create
                0x000000000800662c      0x220 ././lvgl/lv_objx/lv_ta.o
                0x000000000800662c                lv_ta_create
 .text.lv_ta_get_text
                0x000000000800684c       0x1c ././lvgl/lv_objx/lv_ta.o
                0x000000000800684c                lv_ta_get_text
 .text.lv_ta_get_label
                0x0000000008006868        0xc ././lvgl/lv_objx/lv_ta.o
                0x0000000008006868                lv_ta_get_label
 .text.lv_ta_get_cursor_pos
                0x0000000008006874        0xc ././lvgl/lv_objx/lv_ta.o
                0x0000000008006874                lv_ta_get_cursor_pos
 .text.lv_ta_get_cursor_type
                0x0000000008006880        0xc ././lvgl/lv_objx/lv_ta.o
                0x0000000008006880                lv_ta_get_cursor_type
 .text.lv_ta_get_pwd_mode
                0x000000000800688c       0x10 ././lvgl/lv_objx/lv_ta.o
                0x000000000800688c                lv_ta_get_pwd_mode
 .text.lv_ta_get_one_line
                0x000000000800689c       0x10 ././lvgl/lv_objx/lv_ta.o
                0x000000000800689c                lv_ta_get_one_line
 .text.lv_ta_get_style
                0x00000000080068ac       0x34 ././lvgl/lv_objx/lv_ta.o
                0x00000000080068ac                lv_ta_get_style
 .text.lv_ta_cursor_right
                0x00000000080068e0       0x18 ././lvgl/lv_objx/lv_ta.o
                0x00000000080068e0                lv_ta_cursor_right
 .text.lv_ta_cursor_left
                0x00000000080068f8       0x1c ././lvgl/lv_objx/lv_ta.o
                0x00000000080068f8                lv_ta_cursor_left
 .text.lv_ta_cursor_down
                0x0000000008006914       0x68 ././lvgl/lv_objx/lv_ta.o
                0x0000000008006914                lv_ta_cursor_down
 .text.lv_ta_cursor_up
                0x000000000800697c       0x58 ././lvgl/lv_objx/lv_ta.o
                0x000000000800697c                lv_ta_cursor_up
 .text.lv_ta_signal
                0x00000000080069d4      0x1ac ././lvgl/lv_objx/lv_ta.o
 .text          0x0000000008006b80        0x0 ././lvgl/lv_objx/lv_chart.o
 .text.lv_chart_design
                0x0000000008006b80      0x604 ././lvgl/lv_objx/lv_chart.o
 .text.lv_chart_signal
                0x0000000008007184       0x70 ././lvgl/lv_objx/lv_chart.o
 .text.lv_chart_create
                0x00000000080071f4       0xf0 ././lvgl/lv_objx/lv_chart.o
                0x00000000080071f4                lv_chart_create
 .text.lv_chart_add_series
                0x00000000080072e4       0x48 ././lvgl/lv_objx/lv_chart.o
                0x00000000080072e4                lv_chart_add_series
 .text.lv_chart_set_div_line_count
                0x000000000800732c       0x28 ././lvgl/lv_objx/lv_chart.o
                0x000000000800732c                lv_chart_set_div_line_count
 .text.lv_chart_set_range
                0x0000000008007354       0x2c ././lvgl/lv_objx/lv_chart.o
                0x0000000008007354                lv_chart_set_range
 .text.lv_chart_set_type
                0x0000000008007380       0x28 ././lvgl/lv_objx/lv_chart.o
                0x0000000008007380                lv_chart_set_type
 .text.lv_chart_set_point_count
                0x00000000080073a8       0xa8 ././lvgl/lv_objx/lv_chart.o
                0x00000000080073a8                lv_chart_set_point_count
 .text.lv_chart_set_series_opa
                0x0000000008007450       0x20 ././lvgl/lv_objx/lv_chart.o
                0x0000000008007450                lv_chart_set_series_opa
 .text.lv_chart_set_series_width
                0x0000000008007470       0x20 ././lvgl/lv_objx/lv_chart.o
                0x0000000008007470                lv_chart_set_series_width
 .text.lv_chart_set_series_darking
                0x0000000008007490       0x20 ././lvgl/lv_objx/lv_chart.o
                0x0000000008007490                lv_chart_set_series_darking
 .text.lv_chart_init_points
                0x00000000080074b0       0x30 ././lvgl/lv_objx/lv_chart.o
                0x00000000080074b0                lv_chart_init_points
 .text.lv_chart_set_points
                0x00000000080074e0       0x24 ././lvgl/lv_objx/lv_chart.o
                0x00000000080074e0                lv_chart_set_points
 .text.lv_chart_set_next
                0x0000000008007504       0x44 ././lvgl/lv_objx/lv_chart.o
                0x0000000008007504                lv_chart_set_next
 .text.lv_chart_get_type
                0x0000000008007548       0x10 ././lvgl/lv_objx/lv_chart.o
                0x0000000008007548                lv_chart_get_type
 .text.lv_chart_get_point_cnt
                0x0000000008007558        0xc ././lvgl/lv_objx/lv_chart.o
                0x0000000008007558                lv_chart_get_point_cnt
 .text.lv_chart_get_series_opa
                0x0000000008007564        0xc ././lvgl/lv_objx/lv_chart.o
                0x0000000008007564                lv_chart_get_series_opa
 .text.lv_chart_get_series_width
                0x0000000008007570        0xc ././lvgl/lv_objx/lv_chart.o
                0x0000000008007570                lv_chart_get_series_width
 .text.lv_chart_get_series_darking
                0x000000000800757c        0xc ././lvgl/lv_objx/lv_chart.o
                0x000000000800757c                lv_chart_get_series_darking
 .text.lv_chart_refresh
                0x0000000008007588        0x4 ././lvgl/lv_objx/lv_chart.o
                0x0000000008007588                lv_chart_refresh
 .text          0x000000000800758c        0x0 ././lvgl/lv_objx/lv_ddlist.o
 .text.lv_ddlist_pos_current_option
                0x000000000800758c       0x5c ././lvgl/lv_objx/lv_ddlist.o
 .text.lv_ddlist_refr_size
                0x00000000080075e8       0xb4 ././lvgl/lv_objx/lv_ddlist.o
 .text.lv_ddlist_release_action
                0x000000000800769c       0xa8 ././lvgl/lv_objx/lv_ddlist.o
 .text.lv_ddlist_signal
                0x0000000008007744      0x178 ././lvgl/lv_objx/lv_ddlist.o
 .text.lv_ddlist_scrl_signal
                0x00000000080078bc       0x50 ././lvgl/lv_objx/lv_ddlist.o
 .text.lv_ddlist_design
                0x000000000800790c      0x130 ././lvgl/lv_objx/lv_ddlist.o
 .text.lv_ddlist_set_options
                0x0000000008007a3c       0x48 ././lvgl/lv_objx/lv_ddlist.o
                0x0000000008007a3c                lv_ddlist_set_options
 .text.lv_ddlist_set_selected
                0x0000000008007a84       0x3c ././lvgl/lv_objx/lv_ddlist.o
                0x0000000008007a84                lv_ddlist_set_selected
 .text.lv_ddlist_set_action
                0x0000000008007ac0        0xc ././lvgl/lv_objx/lv_ddlist.o
                0x0000000008007ac0                lv_ddlist_set_action
 .text.lv_ddlist_set_fix_height
                0x0000000008007acc       0x24 ././lvgl/lv_objx/lv_ddlist.o
                0x0000000008007acc                lv_ddlist_set_fix_height
 .text.lv_ddlist_set_hor_fit
                0x0000000008007af0       0x3c ././lvgl/lv_objx/lv_ddlist.o
                0x0000000008007af0                lv_ddlist_set_hor_fit
 .text.lv_ddlist_set_anim_time
                0x0000000008007b2c        0xc ././lvgl/lv_objx/lv_ddlist.o
                0x0000000008007b2c                lv_ddlist_set_anim_time
 .text.lv_ddlist_set_style
                0x0000000008007b38       0x44 ././lvgl/lv_objx/lv_ddlist.o
                0x0000000008007b38                lv_ddlist_set_style
 .text.lv_ddlist_create
                0x0000000008007b7c      0x1c0 ././lvgl/lv_objx/lv_ddlist.o
                0x0000000008007b7c                lv_ddlist_create
 .text.lv_ddlist_get_options
                0x0000000008007d3c       0x10 ././lvgl/lv_objx/lv_ddlist.o
                0x0000000008007d3c                lv_ddlist_get_options
 .text.lv_ddlist_get_selected
                0x0000000008007d4c        0xc ././lvgl/lv_objx/lv_ddlist.o
                0x0000000008007d4c                lv_ddlist_get_selected
 .text.lv_ddlist_get_selected_str
                0x0000000008007d58       0x84 ././lvgl/lv_objx/lv_ddlist.o
                0x0000000008007d58                lv_ddlist_get_selected_str
 .text.lv_ddlist_get_action
                0x0000000008007ddc        0xc ././lvgl/lv_objx/lv_ddlist.o
                0x0000000008007ddc                lv_ddlist_get_action
 .text.lv_ddlist_get_fix_height
                0x0000000008007de8        0xc ././lvgl/lv_objx/lv_ddlist.o
                0x0000000008007de8                lv_ddlist_get_fix_height
 .text.lv_ddlist_get_anim_time
                0x0000000008007df4        0xc ././lvgl/lv_objx/lv_ddlist.o
                0x0000000008007df4                lv_ddlist_get_anim_time
 .text.lv_ddlist_get_style
                0x0000000008007e00       0x2c ././lvgl/lv_objx/lv_ddlist.o
                0x0000000008007e00                lv_ddlist_get_style
 .text.lv_ddlist_open
                0x0000000008007e2c       0x30 ././lvgl/lv_objx/lv_ddlist.o
                0x0000000008007e2c                lv_ddlist_open
 .text.lv_ddlist_close
                0x0000000008007e5c       0x30 ././lvgl/lv_objx/lv_ddlist.o
                0x0000000008007e5c                lv_ddlist_close
 .text          0x0000000008007e8c        0x0 ././lvgl/lv_objx/lv_cb.o
 .text.lv_cb_design
                0x0000000008007e8c       0x40 ././lvgl/lv_objx/lv_cb.o
 .text.lv_bullet_design
                0x0000000008007ecc       0x80 ././lvgl/lv_objx/lv_cb.o
 .text.lv_cb_signal
                0x0000000008007f4c       0x9c ././lvgl/lv_objx/lv_cb.o
 .text.lv_cb_set_text
                0x0000000008007fe8       0x14 ././lvgl/lv_objx/lv_cb.o
                0x0000000008007fe8                lv_cb_set_text
 .text.lv_cb_set_style
                0x0000000008007ffc       0x98 ././lvgl/lv_objx/lv_cb.o
                0x0000000008007ffc                lv_cb_set_style
 .text.lv_cb_create
                0x0000000008008094      0x178 ././lvgl/lv_objx/lv_cb.o
                0x0000000008008094                lv_cb_create
 .text.lv_cb_get_text
                0x000000000800820c       0x10 ././lvgl/lv_objx/lv_cb.o
                0x000000000800820c                lv_cb_get_text
 .text.lv_cb_get_style
                0x000000000800821c       0x58 ././lvgl/lv_objx/lv_cb.o
                0x000000000800821c                lv_cb_get_style
 .text          0x0000000008008274        0x0 ././lvgl/lv_objx/lv_mbox.o
 .text.lv_mbox_set_action
                0x0000000008008274       0x14 ././lvgl/lv_objx/lv_mbox.o
                0x0000000008008274                lv_mbox_set_action
 .text.lv_mbox_set_anim_time
                0x0000000008008288        0xc ././lvgl/lv_objx/lv_mbox.o
                0x0000000008008288                lv_mbox_set_anim_time
 .text.lv_mbox_start_auto_close
                0x0000000008008294       0x58 ././lvgl/lv_objx/lv_mbox.o
                0x0000000008008294                lv_mbox_start_auto_close
 .text.lv_mbox_close_action
                0x00000000080082ec       0x1c ././lvgl/lv_objx/lv_mbox.o
 .text.lv_mbox_stop_auto_close
                0x0000000008008308        0x8 ././lvgl/lv_objx/lv_mbox.o
                0x0000000008008308                lv_mbox_stop_auto_close
 .text.lv_mbox_set_style
                0x0000000008008310       0x80 ././lvgl/lv_objx/lv_mbox.o
                0x0000000008008310                lv_mbox_set_style
 .text.lv_mbox_create
                0x0000000008008390       0xe8 ././lvgl/lv_objx/lv_mbox.o
                0x0000000008008390                lv_mbox_create
 .text.lv_mbox_get_text
                0x0000000008008478       0x10 ././lvgl/lv_objx/lv_mbox.o
                0x0000000008008478                lv_mbox_get_text
 .text.lv_mbox_get_from_btn
                0x0000000008008488        0x4 ././lvgl/lv_objx/lv_mbox.o
                0x0000000008008488                lv_mbox_get_from_btn
 .text.lv_mbox_get_anim_time
                0x000000000800848c        0xc ././lvgl/lv_objx/lv_mbox.o
                0x000000000800848c                lv_mbox_get_anim_time
 .text.lv_mbox_get_style
                0x0000000008008498       0x70 ././lvgl/lv_objx/lv_mbox.o
                0x0000000008008498                lv_mbox_get_style
 .text.mbox_realign
                0x0000000008008508       0x64 ././lvgl/lv_objx/lv_mbox.o
 .text.lv_mbox_signal
                0x000000000800856c       0xcc ././lvgl/lv_objx/lv_mbox.o
 .text.lv_mbox_add_btns
                0x0000000008008638       0x94 ././lvgl/lv_objx/lv_mbox.o
                0x0000000008008638                lv_mbox_add_btns
 .text.lv_mbox_set_text
                0x00000000080086cc       0x1c ././lvgl/lv_objx/lv_mbox.o
                0x00000000080086cc                lv_mbox_set_text
 .text          0x00000000080086e8        0x0 ././lvgl/lv_objx/lv_roller.o
 .text.refr_position
                0x00000000080086e8       0xac ././lvgl/lv_objx/lv_roller.o
 .text.lv_roller_scrl_signal
                0x0000000008008794      0x118 ././lvgl/lv_objx/lv_roller.o
 .text.lv_roller_design
                0x00000000080088ac      0x264 ././lvgl/lv_objx/lv_roller.o
 .text.lv_roller_set_selected
                0x0000000008008b10       0x28 ././lvgl/lv_objx/lv_roller.o
                0x0000000008008b10                lv_roller_set_selected
 .text.lv_roller_signal
                0x0000000008008b38      0x170 ././lvgl/lv_objx/lv_roller.o
 .text.lv_roller_set_visible_row_count
                0x0000000008008ca8       0x2c ././lvgl/lv_objx/lv_roller.o
                0x0000000008008ca8                lv_roller_set_visible_row_count
 .text.lv_roller_create
                0x0000000008008cd4      0x100 ././lvgl/lv_objx/lv_roller.o
                0x0000000008008cd4                lv_roller_create
 .text.lv_roller_set_style
                0x0000000008008dd4       0x18 ././lvgl/lv_objx/lv_roller.o
                0x0000000008008dd4                lv_roller_set_style
 .text.lv_roller_get_hor_fit
                0x0000000008008dec       0x10 ././lvgl/lv_objx/lv_roller.o
                0x0000000008008dec                lv_roller_get_hor_fit
 .text.lv_roller_get_style
                0x0000000008008dfc       0x14 ././lvgl/lv_objx/lv_roller.o
                0x0000000008008dfc                lv_roller_get_style
 .text          0x0000000008008e10        0x0 ././lvgl/lv_objx/lv_objx_templ.o
 .text          0x0000000008008e10        0x0 ././lvgl/lv_objx/lv_gauge.o
 .text.lv_gauge_design
                0x0000000008008e10      0x3bc ././lvgl/lv_objx/lv_gauge.o
 .text.lv_gauge_signal
                0x00000000080091cc       0x54 ././lvgl/lv_objx/lv_gauge.o
 .text.lv_gauge_set_needle_count
                0x0000000008009220       0x64 ././lvgl/lv_objx/lv_gauge.o
                0x0000000008009220                lv_gauge_set_needle_count
 .text.lv_gauge_set_value
                0x0000000008009284       0x54 ././lvgl/lv_objx/lv_gauge.o
                0x0000000008009284                lv_gauge_set_value
 .text.lv_gauge_set_scale
                0x00000000080092d8       0x1c ././lvgl/lv_objx/lv_gauge.o
                0x00000000080092d8                lv_gauge_set_scale
 .text.lv_gauge_create
                0x00000000080092f4       0xf4 ././lvgl/lv_objx/lv_gauge.o
                0x00000000080092f4                lv_gauge_create
 .text.lv_gauge_get_value
                0x00000000080093e8       0x20 ././lvgl/lv_objx/lv_gauge.o
                0x00000000080093e8                lv_gauge_get_value
 .text.lv_gauge_get_needle_count
                0x0000000008009408        0xc ././lvgl/lv_objx/lv_gauge.o
                0x0000000008009408                lv_gauge_get_needle_count
 .text.lv_gauge_get_label_count
                0x0000000008009414        0xc ././lvgl/lv_objx/lv_gauge.o
                0x0000000008009414                lv_gauge_get_label_count
 .text          0x0000000008009420        0x0 ././lvgl/lv_objx/lv_win.o
 .text.lv_win_close_action
                0x0000000008009420       0x14 ././lvgl/lv_objx/lv_win.o
                0x0000000008009420                lv_win_close_action
 .text.lv_win_set_layout
                0x0000000008009434       0x18 ././lvgl/lv_objx/lv_win.o
                0x0000000008009434                lv_win_set_layout
 .text.lv_win_set_sb_mode
                0x000000000800944c       0x14 ././lvgl/lv_objx/lv_win.o
                0x000000000800944c                lv_win_set_sb_mode
 .text.lv_win_get_title
                0x0000000008009460       0x10 ././lvgl/lv_objx/lv_win.o
                0x0000000008009460                lv_win_get_title
 .text.lv_win_get_btn_size
                0x0000000008009470        0xc ././lvgl/lv_objx/lv_win.o
                0x0000000008009470                lv_win_get_btn_size
 .text.lv_win_get_layout
                0x000000000800947c       0x14 ././lvgl/lv_objx/lv_win.o
                0x000000000800947c                lv_win_get_layout
 .text.lv_win_get_sb_mode
                0x0000000008009490       0x10 ././lvgl/lv_objx/lv_win.o
                0x0000000008009490                lv_win_get_sb_mode
 .text.lv_win_get_width
                0x00000000080094a0       0x24 ././lvgl/lv_objx/lv_win.o
                0x00000000080094a0                lv_win_get_width
 .text.lv_win_get_from_btn
                0x00000000080094c4       0x10 ././lvgl/lv_objx/lv_win.o
                0x00000000080094c4                lv_win_get_from_btn
 .text.lv_win_get_style
                0x00000000080094d4       0x60 ././lvgl/lv_objx/lv_win.o
                0x00000000080094d4                lv_win_get_style
 .text.lv_win_realign
                0x0000000008009534      0x104 ././lvgl/lv_objx/lv_win.o
 .text.lv_win_signal
                0x0000000008009638       0xd0 ././lvgl/lv_objx/lv_win.o
 .text.lv_win_add_btn
                0x0000000008009708       0x68 ././lvgl/lv_objx/lv_win.o
                0x0000000008009708                lv_win_add_btn
 .text.lv_win_set_title
                0x0000000008009770       0x1c ././lvgl/lv_objx/lv_win.o
                0x0000000008009770                lv_win_set_title
 .text.lv_win_set_btn_size
                0x000000000800978c       0x20 ././lvgl/lv_objx/lv_win.o
                0x000000000800978c                lv_win_set_btn_size
 .text.lv_win_set_style
                0x00000000080097ac       0xa8 ././lvgl/lv_objx/lv_win.o
                0x00000000080097ac                lv_win_set_style
 .text.lv_win_create
                0x0000000008009854      0x1f8 ././lvgl/lv_objx/lv_win.o
                0x0000000008009854                lv_win_create
 .text.lv_win_focus
                0x0000000008009a4c       0x18 ././lvgl/lv_objx/lv_win.o
                0x0000000008009a4c                lv_win_focus
 .text          0x0000000008009a64        0x0 ././lvgl/lv_objx/lv_list.o
 .text.get_next_btn
                0x0000000008009a64       0x3c ././lvgl/lv_objx/lv_list.o
 .text.lv_list_add
                0x0000000008009aa0      0x13c ././lvgl/lv_objx/lv_list.o
                0x0000000008009aa0                lv_list_add
 .text.lv_list_set_anim_time
                0x0000000008009bdc       0x14 ././lvgl/lv_objx/lv_list.o
                0x0000000008009bdc                lv_list_set_anim_time
 .text.lv_list_get_btn_label
                0x0000000008009bf0       0x34 ././lvgl/lv_objx/lv_list.o
                0x0000000008009bf0                lv_list_get_btn_label
 .text.lv_list_get_btn_text
                0x0000000008009c24       0x18 ././lvgl/lv_objx/lv_list.o
                0x0000000008009c24                lv_list_get_btn_text
 .text.refr_btn_width
                0x0000000008009c3c       0x80 ././lvgl/lv_objx/lv_list.o
 .text.lv_list_signal
                0x0000000008009cbc      0x180 ././lvgl/lv_objx/lv_list.o
 .text.lv_list_set_style
                0x0000000008009e3c       0x98 ././lvgl/lv_objx/lv_list.o
                0x0000000008009e3c                lv_list_set_style
 .text.lv_list_get_btn_img
                0x0000000008009ed4       0x34 ././lvgl/lv_objx/lv_list.o
                0x0000000008009ed4                lv_list_get_btn_img
 .text.lv_list_create
                0x0000000008009f08      0x1a4 ././lvgl/lv_objx/lv_list.o
                0x0000000008009f08                lv_list_create
 .text.lv_list_get_anim_time
                0x000000000800a0ac        0xc ././lvgl/lv_objx/lv_list.o
                0x000000000800a0ac                lv_list_get_anim_time
 .text.lv_list_get_style
                0x000000000800a0b8       0x58 ././lvgl/lv_objx/lv_list.o
                0x000000000800a0b8                lv_list_get_style
 .text.lv_list_up
                0x000000000800a110       0xbc ././lvgl/lv_objx/lv_list.o
                0x000000000800a110                lv_list_up
 .text.lv_list_down
                0x000000000800a1cc       0x88 ././lvgl/lv_objx/lv_list.o
                0x000000000800a1cc                lv_list_down
 .text.lv_list_focus
                0x000000000800a254       0x34 ././lvgl/lv_objx/lv_list.o
                0x000000000800a254                lv_list_focus
 .text          0x000000000800a288        0x0 ././lvgl/lv_objx/lv_tabview.o
 .text.tabpage_pressing_handler
                0x000000000800a288       0xec ././lvgl/lv_objx/lv_tabview.o
 .text.tabpage_pressed_handler.isra.3
                0x000000000800a374       0x18 ././lvgl/lv_objx/lv_tabview.o
 .text.lv_tabview_set_tab_act
                0x000000000800a38c      0x164 ././lvgl/lv_objx/lv_tabview.o
                0x000000000800a38c                lv_tabview_set_tab_act
 .text.tab_btnm_action
                0x000000000800a4f0       0x44 ././lvgl/lv_objx/lv_tabview.o
 .text.tabpage_press_lost_handler
                0x000000000800a534       0xc4 ././lvgl/lv_objx/lv_tabview.o
 .text.tabpage_signal
                0x000000000800a5f8       0x5c ././lvgl/lv_objx/lv_tabview.o
 .text.tabpage_scrl_signal
                0x000000000800a654       0x60 ././lvgl/lv_objx/lv_tabview.o
 .text.lv_tabview_set_tab_load_action
                0x000000000800a6b4        0xc ././lvgl/lv_objx/lv_tabview.o
                0x000000000800a6b4                lv_tabview_set_tab_load_action
 .text.lv_tabview_set_sliding
                0x000000000800a6c0       0x14 ././lvgl/lv_objx/lv_tabview.o
                0x000000000800a6c0                lv_tabview_set_sliding
 .text.lv_tabview_set_anim_time
                0x000000000800a6d4        0xc ././lvgl/lv_objx/lv_tabview.o
                0x000000000800a6d4                lv_tabview_set_anim_time
 .text.lv_tabview_get_tab_act
                0x000000000800a6e0        0xc ././lvgl/lv_objx/lv_tabview.o
                0x000000000800a6e0                lv_tabview_get_tab_act
 .text.lv_tabview_get_tab_count
                0x000000000800a6ec        0xc ././lvgl/lv_objx/lv_tabview.o
                0x000000000800a6ec                lv_tabview_get_tab_count
 .text.lv_tabview_get_tab
                0x000000000800a6f8       0x34 ././lvgl/lv_objx/lv_tabview.o
                0x000000000800a6f8                lv_tabview_get_tab
 .text.lv_tabview_get_tab_load_action
                0x000000000800a72c        0xc ././lvgl/lv_objx/lv_tabview.o
                0x000000000800a72c                lv_tabview_get_tab_load_action
 .text.lv_tabview_get_sliding
                0x000000000800a738       0x10 ././lvgl/lv_objx/lv_tabview.o
                0x000000000800a738                lv_tabview_get_sliding
 .text.lv_tabview_get_anim_time
                0x000000000800a748        0xc ././lvgl/lv_objx/lv_tabview.o
                0x000000000800a748                lv_tabview_get_anim_time
 .text.lv_tabview_get_style
                0x000000000800a754       0x64 ././lvgl/lv_objx/lv_tabview.o
                0x000000000800a754                lv_tabview_get_style
 .text.tabview_realign
                0x000000000800a7b8      0x110 ././lvgl/lv_objx/lv_tabview.o
 .text.lv_tabview_signal
                0x000000000800a8c8       0xd8 ././lvgl/lv_objx/lv_tabview.o
 .text.lv_tabview_add_tab
                0x000000000800a9a0      0x174 ././lvgl/lv_objx/lv_tabview.o
                0x000000000800a9a0                lv_tabview_add_tab
 .text.lv_tabview_set_style
                0x000000000800ab14       0x9c ././lvgl/lv_objx/lv_tabview.o
                0x000000000800ab14                lv_tabview_set_style
 .text.lv_tabview_create
                0x000000000800abb0      0x278 ././lvgl/lv_objx/lv_tabview.o
                0x000000000800abb0                lv_tabview_create
 .text          0x000000000800ae28        0x0 ././lvgl/lv_objx/lv_line.o
 .text.lv_line_signal
                0x000000000800ae28       0x58 ././lvgl/lv_objx/lv_line.o
 .text.lv_line_design
                0x000000000800ae80       0xd0 ././lvgl/lv_objx/lv_line.o
 .text.lv_line_set_points
                0x000000000800af50       0x68 ././lvgl/lv_objx/lv_line.o
                0x000000000800af50                lv_line_set_points
 .text.lv_line_set_auto_size
                0x000000000800afb8       0x30 ././lvgl/lv_objx/lv_line.o
                0x000000000800afb8                lv_line_set_auto_size
 .text.lv_line_set_y_invert
                0x000000000800afe8       0x28 ././lvgl/lv_objx/lv_line.o
                0x000000000800afe8                lv_line_set_y_invert
 .text.lv_line_create
                0x000000000800b010       0xd0 ././lvgl/lv_objx/lv_line.o
                0x000000000800b010                lv_line_create
 .text.lv_line_get_auto_size
                0x000000000800b0e0       0x10 ././lvgl/lv_objx/lv_line.o
                0x000000000800b0e0                lv_line_get_auto_size
 .text.lv_line_get_y_inv
                0x000000000800b0f0       0x10 ././lvgl/lv_objx/lv_line.o
                0x000000000800b0f0                lv_line_get_y_inv
 .text          0x000000000800b100        0x0 ././lvgl/lv_objx/lv_btn.o
 .text.lv_btn_set_toggle
                0x000000000800b100       0x18 ././lvgl/lv_objx/lv_btn.o
                0x000000000800b100                lv_btn_set_toggle
 .text.lv_btn_set_state
                0x000000000800b118       0x28 ././lvgl/lv_objx/lv_btn.o
                0x000000000800b118                lv_btn_set_state
 .text.lv_btn_signal
                0x000000000800b140      0x278 ././lvgl/lv_objx/lv_btn.o
 .text.lv_btn_toggle
                0x000000000800b3b8       0x4c ././lvgl/lv_objx/lv_btn.o
                0x000000000800b3b8                lv_btn_toggle
 .text.lv_btn_set_action
                0x000000000800b404       0x18 ././lvgl/lv_objx/lv_btn.o
                0x000000000800b404                lv_btn_set_action
 .text.lv_btn_set_style
                0x000000000800b41c       0x40 ././lvgl/lv_objx/lv_btn.o
                0x000000000800b41c                lv_btn_set_style
 .text.lv_btn_create
                0x000000000800b45c      0x12c ././lvgl/lv_objx/lv_btn.o
                0x000000000800b45c                lv_btn_create
 .text.lv_btn_get_state
                0x000000000800b588        0xc ././lvgl/lv_objx/lv_btn.o
                0x000000000800b588                lv_btn_get_state
 .text.lv_btn_get_toggle
                0x000000000800b594       0x10 ././lvgl/lv_objx/lv_btn.o
                0x000000000800b594                lv_btn_get_toggle
 .text.lv_btn_get_action
                0x000000000800b5a4       0x18 ././lvgl/lv_objx/lv_btn.o
                0x000000000800b5a4                lv_btn_get_action
 .text.lv_btn_get_style
                0x000000000800b5bc       0x30 ././lvgl/lv_objx/lv_btn.o
                0x000000000800b5bc                lv_btn_get_style
 .text          0x000000000800b5ec        0x0 ././lvgl/lv_objx/lv_label.o
 .text.lv_label_revert_dots
                0x000000000800b5ec       0x40 ././lvgl/lv_objx/lv_label.o
 .text.lv_label_set_offset_y
                0x000000000800b62c       0x18 ././lvgl/lv_objx/lv_label.o
 .text.lv_label_set_offset_x
                0x000000000800b644       0x18 ././lvgl/lv_objx/lv_label.o
 .text.lv_label_design
                0x000000000800b65c       0xc8 ././lvgl/lv_objx/lv_label.o
 .text.lv_label_set_align
                0x000000000800b724       0x28 ././lvgl/lv_objx/lv_label.o
                0x000000000800b724                lv_label_set_align
 .text.lv_label_set_body_draw
                0x000000000800b74c       0x2c ././lvgl/lv_objx/lv_label.o
                0x000000000800b74c                lv_label_set_body_draw
 .text.lv_label_get_text
                0x000000000800b778        0xc ././lvgl/lv_objx/lv_label.o
                0x000000000800b778                lv_label_get_text
 .text.lv_label_get_long_mode
                0x000000000800b784        0xc ././lvgl/lv_objx/lv_label.o
                0x000000000800b784                lv_label_get_long_mode
 .text.lv_label_get_align
                0x000000000800b790       0x10 ././lvgl/lv_objx/lv_label.o
                0x000000000800b790                lv_label_get_align
 .text.lv_label_get_recolor
                0x000000000800b7a0       0x10 ././lvgl/lv_objx/lv_label.o
                0x000000000800b7a0                lv_label_get_recolor
 .text.lv_label_get_no_break
                0x000000000800b7b0       0x10 ././lvgl/lv_objx/lv_label.o
                0x000000000800b7b0                lv_label_get_no_break
 .text.lv_label_get_body_draw
                0x000000000800b7c0       0x10 ././lvgl/lv_objx/lv_label.o
                0x000000000800b7c0                lv_label_get_body_draw
 .text.lv_label_get_anim_speed
                0x000000000800b7d0        0xc ././lvgl/lv_objx/lv_label.o
                0x000000000800b7d0                lv_label_get_anim_speed
 .text.lv_label_get_letter_pos
                0x000000000800b7dc      0x1b8 ././lvgl/lv_objx/lv_label.o
                0x000000000800b7dc                lv_label_get_letter_pos
 .text.lv_label_get_letter_on
                0x000000000800b994      0x18c ././lvgl/lv_objx/lv_label.o
                0x000000000800b994                lv_label_get_letter_on
 .text.lv_label_refr_text
                0x000000000800bb20      0x364 ././lvgl/lv_objx/lv_label.o
 .text.lv_label_signal
                0x000000000800be84       0xc8 ././lvgl/lv_objx/lv_label.o
 .text.lv_label_set_text
                0x000000000800bf4c       0x70 ././lvgl/lv_objx/lv_label.o
                0x000000000800bf4c                lv_label_set_text
 .text.lv_label_set_array_text
                0x000000000800bfbc       0x64 ././lvgl/lv_objx/lv_label.o
                0x000000000800bfbc                lv_label_set_array_text
 .text.lv_label_set_static_text
                0x000000000800c020       0x34 ././lvgl/lv_objx/lv_label.o
                0x000000000800c020                lv_label_set_static_text
 .text.lv_label_set_long_mode
                0x000000000800c054       0x84 ././lvgl/lv_objx/lv_label.o
                0x000000000800c054                lv_label_set_long_mode
 .text.lv_label_set_recolor
                0x000000000800c0d8       0x28 ././lvgl/lv_objx/lv_label.o
                0x000000000800c0d8                lv_label_set_recolor
 .text.lv_label_create
                0x000000000800c100      0x168 ././lvgl/lv_objx/lv_label.o
                0x000000000800c100                lv_label_create
 .text.lv_label_set_no_break
                0x000000000800c268       0x28 ././lvgl/lv_objx/lv_label.o
                0x000000000800c268                lv_label_set_no_break
 .text.lv_label_set_anim_speed
                0x000000000800c290       0x28 ././lvgl/lv_objx/lv_label.o
                0x000000000800c290                lv_label_set_anim_speed
 .text.lv_label_ins_text
                0x000000000800c2b8       0x68 ././lvgl/lv_objx/lv_label.o
                0x000000000800c2b8                lv_label_ins_text
 .text.lv_label_cut_text
                0x000000000800c320       0x34 ././lvgl/lv_objx/lv_label.o
                0x000000000800c320                lv_label_cut_text
 .text          0x000000000800c354        0x0 ././lvgl/lv_objx/lv_page.o
 .text.lv_page_sb_refresh
                0x000000000800c354      0x3a0 ././lvgl/lv_objx/lv_page.o
 .text.lv_scrl_design
                0x000000000800c6f4       0x80 ././lvgl/lv_objx/lv_page.o
 .text.lv_page_signal
                0x000000000800c774      0x1c0 ././lvgl/lv_objx/lv_page.o
 .text.lv_page_scrollable_signal
                0x000000000800c934      0x26c ././lvgl/lv_objx/lv_page.o
 .text.lv_page_design
                0x000000000800cba0      0x130 ././lvgl/lv_objx/lv_page.o
 .text.lv_page_set_rel_action
                0x000000000800ccd0        0xc ././lvgl/lv_objx/lv_page.o
                0x000000000800ccd0                lv_page_set_rel_action
 .text.lv_page_set_pr_action
                0x000000000800ccdc        0xc ././lvgl/lv_objx/lv_page.o
                0x000000000800ccdc                lv_page_set_pr_action
 .text.lv_page_set_sb_mode
                0x000000000800cce8       0x34 ././lvgl/lv_objx/lv_page.o
                0x000000000800cce8                lv_page_set_sb_mode
 .text.lv_page_set_style
                0x000000000800cd1c       0x64 ././lvgl/lv_objx/lv_page.o
                0x000000000800cd1c                lv_page_set_style
 .text.lv_page_create
                0x000000000800cd80      0x200 ././lvgl/lv_objx/lv_page.o
                0x000000000800cd80                lv_page_create
 .text.lv_page_get_scrl
                0x000000000800cf80        0xc ././lvgl/lv_objx/lv_page.o
                0x000000000800cf80                lv_page_get_scrl
 .text.lv_page_get_sb_mode
                0x000000000800cf8c       0x10 ././lvgl/lv_objx/lv_page.o
                0x000000000800cf8c                lv_page_get_sb_mode
 .text.lv_page_get_style
                0x000000000800cf9c       0x30 ././lvgl/lv_objx/lv_page.o
                0x000000000800cf9c                lv_page_get_style
 .text.lv_page_glue_obj
                0x000000000800cfcc       0x18 ././lvgl/lv_objx/lv_page.o
                0x000000000800cfcc                lv_page_glue_obj
 .text.lv_page_focus
                0x000000000800cfe4       0xf4 ././lvgl/lv_objx/lv_page.o
                0x000000000800cfe4                lv_page_focus
 .text          0x000000000800d0d8        0x0 ././lvgl/lv_objx/lv_lmeter.o
 .text.lv_lmeter_signal
                0x000000000800d0d8       0x38 ././lvgl/lv_objx/lv_lmeter.o
 .text.lv_lmeter_design
                0x000000000800d110      0x2a4 ././lvgl/lv_objx/lv_lmeter.o
 .text.lv_lmeter_create
                0x000000000800d3b4       0xb4 ././lvgl/lv_objx/lv_lmeter.o
                0x000000000800d3b4                lv_lmeter_create
 .text.lv_lmeter_set_value
                0x000000000800d468       0x38 ././lvgl/lv_objx/lv_lmeter.o
                0x000000000800d468                lv_lmeter_set_value
 .text.lv_lmeter_set_range
                0x000000000800d4a0       0x60 ././lvgl/lv_objx/lv_lmeter.o
                0x000000000800d4a0                lv_lmeter_set_range
 .text.lv_lmeter_set_scale
                0x000000000800d500       0x28 ././lvgl/lv_objx/lv_lmeter.o
                0x000000000800d500                lv_lmeter_set_scale
 .text.lv_lmeter_get_value
                0x000000000800d528        0xc ././lvgl/lv_objx/lv_lmeter.o
                0x000000000800d528                lv_lmeter_get_value
 .text.lv_lmeter_get_min_value
                0x000000000800d534        0xc ././lvgl/lv_objx/lv_lmeter.o
                0x000000000800d534                lv_lmeter_get_min_value
 .text.lv_lmeter_get_max_value
                0x000000000800d540        0xc ././lvgl/lv_objx/lv_lmeter.o
                0x000000000800d540                lv_lmeter_get_max_value
 .text.lv_lmeter_get_line_count
                0x000000000800d54c        0xc ././lvgl/lv_objx/lv_lmeter.o
                0x000000000800d54c                lv_lmeter_get_line_count
 .text.lv_lmeter_get_scale_angle
                0x000000000800d558        0xc ././lvgl/lv_objx/lv_lmeter.o
                0x000000000800d558                lv_lmeter_get_scale_angle
 .text          0x000000000800d564        0x0 ././lvgl/lv_objx/lv_led.o
 .text.lv_led_signal
                0x000000000800d564       0x38 ././lvgl/lv_objx/lv_led.o
 .text.lv_led_design
                0x000000000800d59c      0x180 ././lvgl/lv_objx/lv_led.o
 .text.lv_led_create
                0x000000000800d71c       0xa4 ././lvgl/lv_objx/lv_led.o
                0x000000000800d71c                lv_led_create
 .text.lv_led_set_bright
                0x000000000800d7c0       0x20 ././lvgl/lv_objx/lv_led.o
                0x000000000800d7c0                lv_led_set_bright
 .text.lv_led_on
                0x000000000800d7e0        0x8 ././lvgl/lv_objx/lv_led.o
                0x000000000800d7e0                lv_led_on
 .text.lv_led_off
                0x000000000800d7e8        0x8 ././lvgl/lv_objx/lv_led.o
                0x000000000800d7e8                lv_led_off
 .text.lv_led_toggle
                0x000000000800d7f0       0x24 ././lvgl/lv_objx/lv_led.o
                0x000000000800d7f0                lv_led_toggle
 .text.lv_led_get_bright
                0x000000000800d814        0xc ././lvgl/lv_objx/lv_led.o
                0x000000000800d814                lv_led_get_bright
 .text          0x000000000800d820        0x0 ././lvgl/lv_objx/lv_btnm.o
 .text.get_button_text
                0x000000000800d820       0x6c ././lvgl/lv_objx/lv_btnm.o
 .text.lv_btnm_design
                0x000000000800d88c      0x228 ././lvgl/lv_objx/lv_btnm.o
 .text.lv_btnm_set_map.part.7
                0x000000000800dab4      0x268 ././lvgl/lv_objx/lv_btnm.o
 .text.lv_btnm_signal
                0x000000000800dd1c      0x49c ././lvgl/lv_objx/lv_btnm.o
 .text.lv_btnm_set_map
                0x000000000800e1b8        0x8 ././lvgl/lv_objx/lv_btnm.o
                0x000000000800e1b8                lv_btnm_set_map
 .text.lv_btnm_set_action
                0x000000000800e1c0        0xc ././lvgl/lv_objx/lv_btnm.o
                0x000000000800e1c0                lv_btnm_set_action
 .text.lv_btnm_set_toggle
                0x000000000800e1cc       0x44 ././lvgl/lv_objx/lv_btnm.o
                0x000000000800e1cc                lv_btnm_set_toggle
 .text.lv_btnm_set_style
                0x000000000800e210       0x64 ././lvgl/lv_objx/lv_btnm.o
                0x000000000800e210                lv_btnm_set_style
 .text.lv_btnm_create
                0x000000000800e274      0x178 ././lvgl/lv_objx/lv_btnm.o
                0x000000000800e274                lv_btnm_create
 .text.lv_btnm_get_map
                0x000000000800e3ec        0xc ././lvgl/lv_objx/lv_btnm.o
                0x000000000800e3ec                lv_btnm_get_map
 .text.lv_btnm_get_action
                0x000000000800e3f8        0xc ././lvgl/lv_objx/lv_btnm.o
                0x000000000800e3f8                lv_btnm_get_action
 .text.lv_btnm_get_toggled
                0x000000000800e404       0x18 ././lvgl/lv_objx/lv_btnm.o
                0x000000000800e404                lv_btnm_get_toggled
 .text.lv_btnm_get_style
                0x000000000800e41c       0x3c ././lvgl/lv_objx/lv_btnm.o
                0x000000000800e41c                lv_btnm_get_style
 .text.cut_ctrl_byte
                0x000000000800e458       0x10 ././lvgl/lv_objx/lv_btnm.o
                0x000000000800e458                cut_ctrl_byte
 .text          0x000000000800e468        0x0 ././lvgl/lv_objx/lv_cont.o
 .text.lv_cont_refr_layout
                0x000000000800e468      0x598 ././lvgl/lv_objx/lv_cont.o
 .text.lv_cont_refr_autofit
                0x000000000800ea00      0x1b0 ././lvgl/lv_objx/lv_cont.o
 .text.lv_cont_signal
                0x000000000800ebb0       0x84 ././lvgl/lv_objx/lv_cont.o
 .text.lv_cont_create
                0x000000000800ec34       0xa4 ././lvgl/lv_objx/lv_cont.o
                0x000000000800ec34                lv_cont_create
 .text.lv_cont_set_layout
                0x000000000800ecd8       0x2c ././lvgl/lv_objx/lv_cont.o
                0x000000000800ecd8                lv_cont_set_layout
 .text.lv_cont_set_fit
                0x000000000800ed04       0x4c ././lvgl/lv_objx/lv_cont.o
                0x000000000800ed04                lv_cont_set_fit
 .text.lv_cont_get_layout
                0x000000000800ed50       0x10 ././lvgl/lv_objx/lv_cont.o
                0x000000000800ed50                lv_cont_get_layout
 .text.lv_cont_get_hor_fit
                0x000000000800ed60       0x10 ././lvgl/lv_objx/lv_cont.o
                0x000000000800ed60                lv_cont_get_hor_fit
 .text.lv_cont_get_ver_fit
                0x000000000800ed70       0x10 ././lvgl/lv_objx/lv_cont.o
                0x000000000800ed70                lv_cont_get_ver_fit
 .text          0x000000000800ed80        0x0 ././lvgl/lv_objx/lv_bar.o
 .text.lv_bar_set_value
                0x000000000800ed80       0x38 ././lvgl/lv_objx/lv_bar.o
                0x000000000800ed80                lv_bar_set_value
 .text.lv_bar_design
                0x000000000800edb8       0xe4 ././lvgl/lv_objx/lv_bar.o
 .text.lv_bar_signal
                0x000000000800ee9c       0x5c ././lvgl/lv_objx/lv_bar.o
 .text.lv_bar_create
                0x000000000800eef8      0x100 ././lvgl/lv_objx/lv_bar.o
                0x000000000800eef8                lv_bar_create
 .text.lv_bar_set_value_anim
                0x000000000800eff8       0x64 ././lvgl/lv_objx/lv_bar.o
                0x000000000800eff8                lv_bar_set_value_anim
 .text.lv_bar_set_range
                0x000000000800f05c       0x60 ././lvgl/lv_objx/lv_bar.o
                0x000000000800f05c                lv_bar_set_range
 .text.lv_bar_set_style
                0x000000000800f0bc       0x2c ././lvgl/lv_objx/lv_bar.o
                0x000000000800f0bc                lv_bar_set_style
 .text.lv_bar_get_value
                0x000000000800f0e8        0xc ././lvgl/lv_objx/lv_bar.o
                0x000000000800f0e8                lv_bar_get_value
 .text.lv_bar_get_min_value
                0x000000000800f0f4        0xc ././lvgl/lv_objx/lv_bar.o
                0x000000000800f0f4                lv_bar_get_min_value
 .text.lv_bar_get_max_value
                0x000000000800f100        0xc ././lvgl/lv_objx/lv_bar.o
                0x000000000800f100                lv_bar_get_max_value
 .text.lv_bar_get_style
                0x000000000800f10c       0x24 ././lvgl/lv_objx/lv_bar.o
                0x000000000800f10c                lv_bar_get_style
 .text          0x000000000800f130        0x0 ././lvgl/lv_draw/lv_draw.o
 .text.antialias_get_opa
                0x000000000800f130       0x2c ././lvgl/lv_draw/lv_draw.o
 .text.lv_draw_rect_main_corner
                0x000000000800f15c      0xd98 ././lvgl/lv_draw/lv_draw.o
 .text.hex_char_to_num.part.5
                0x000000000800fef4       0x1c ././lvgl/lv_draw/lv_draw.o
 .text.lv_draw_rect
                0x000000000800ff10     0x1754 ././lvgl/lv_draw/lv_draw.o
                0x000000000800ff10                lv_draw_rect
 .text.lv_draw_label
                0x0000000008011664      0x2b4 ././lvgl/lv_draw/lv_draw.o
                0x0000000008011664                lv_draw_label
 .text.lv_draw_img
                0x0000000008011918      0x234 ././lvgl/lv_draw/lv_draw.o
                0x0000000008011918                lv_draw_img
 .text.lv_draw_line
                0x0000000008011b4c      0x66c ././lvgl/lv_draw/lv_draw.o
                0x0000000008011b4c                lv_draw_line
 .text          0x00000000080121b8        0x0 ././lvgl/lv_draw/lv_draw_rbasic.o
 .text          0x00000000080121b8        0x0 ././lvgl/lv_draw/lv_draw_vbasic.o
 .text.lv_vpx   0x00000000080121b8       0xc4 ././lvgl/lv_draw/lv_draw_vbasic.o
                0x00000000080121b8                lv_vpx
 .text.lv_vfill
                0x000000000801227c      0x194 ././lvgl/lv_draw/lv_draw_vbasic.o
                0x000000000801227c                lv_vfill
 .text.lv_vletter
                0x0000000008012410      0x368 ././lvgl/lv_draw/lv_draw_vbasic.o
                0x0000000008012410                lv_vletter
 .text.lv_vmap  0x0000000008012778      0x34c ././lvgl/lv_draw/lv_draw_vbasic.o
                0x0000000008012778                lv_vmap
 .text          0x0000000008012ac4        0x0 ././lvgl/lv_themes/lv_theme_zen.o
 .text          0x0000000008012ac4        0x0 ././lvgl/lv_themes/lv_theme_night.o
 .text          0x0000000008012ac4        0x0 ././lvgl/lv_themes/lv_theme.o
 .text.lv_theme_set_current
                0x0000000008012ac4        0xc ././lvgl/lv_themes/lv_theme.o
                0x0000000008012ac4                lv_theme_set_current
 .text.lv_theme_get_current
                0x0000000008012ad0        0xc ././lvgl/lv_themes/lv_theme.o
                0x0000000008012ad0                lv_theme_get_current
 .text          0x0000000008012adc        0x0 ././lvgl/lv_themes/lv_theme_default.o
 .text.lv_theme_default_init
                0x0000000008012adc      0x358 ././lvgl/lv_themes/lv_theme_default.o
                0x0000000008012adc                lv_theme_default_init
 .text.lv_theme_get_default
                0x0000000008012e34        0x8 ././lvgl/lv_themes/lv_theme_default.o
                0x0000000008012e34                lv_theme_get_default
 .text          0x0000000008012e3c        0x0 ././lvgl/lv_themes/lv_theme_mono.o
 .text          0x0000000008012e3c        0x0 ././lvgl/lv_themes/lv_theme_alien.o
 .text          0x0000000008012e3c        0x0 ././lvgl/lv_themes/lv_theme_material.o
 .text.lv_theme_material_init
                0x0000000008012e3c      0xbfc ././lvgl/lv_themes/lv_theme_material.o
                0x0000000008012e3c                lv_theme_material_init
 .text.lv_theme_get_material
                0x0000000008013a38        0x8 ././lvgl/lv_themes/lv_theme_material.o
                0x0000000008013a38                lv_theme_get_material
 .text          0x0000000008013a40        0x0 ././lvgl/lv_themes/lv_theme_templ.o
 .text          0x0000000008013a40        0x0 ././lvgl/lv_hal/lv_hal_tick.o
 .text.lv_tick_inc
                0x0000000008013a40       0x20 ././lvgl/lv_hal/lv_hal_tick.o
                0x0000000008013a40                lv_tick_inc
 .text.lv_tick_get
                0x0000000008013a60       0x1c ././lvgl/lv_hal/lv_hal_tick.o
                0x0000000008013a60                lv_tick_get
 .text.lv_tick_elaps
                0x0000000008013a7c       0x24 ././lvgl/lv_hal/lv_hal_tick.o
                0x0000000008013a7c                lv_tick_elaps
 .text          0x0000000008013aa0        0x0 ././lvgl/lv_hal/lv_hal_indev.o
 .text.lv_indev_drv_init
                0x0000000008013aa0        0xc ././lvgl/lv_hal/lv_hal_indev.o
                0x0000000008013aa0                lv_indev_drv_init
 .text.lv_indev_drv_register
                0x0000000008013aac       0x54 ././lvgl/lv_hal/lv_hal_indev.o
                0x0000000008013aac                lv_indev_drv_register
 .text.lv_indev_next
                0x0000000008013b00       0x10 ././lvgl/lv_hal/lv_hal_indev.o
                0x0000000008013b00                lv_indev_next
 .text.lv_indev_read
                0x0000000008013b10       0x18 ././lvgl/lv_hal/lv_hal_indev.o
                0x0000000008013b10                lv_indev_read
 .text          0x0000000008013b28        0x0 ././lvgl/lv_hal/lv_hal_disp.o
 .text.lv_disp_drv_init
                0x0000000008013b28        0xc ././lvgl/lv_hal/lv_hal_disp.o
                0x0000000008013b28                lv_disp_drv_init
 .text.lv_disp_drv_register
                0x0000000008013b34       0x44 ././lvgl/lv_hal/lv_hal_disp.o
                0x0000000008013b34                lv_disp_drv_register
 .text.lv_disp_set_active
                0x0000000008013b78       0x18 ././lvgl/lv_hal/lv_hal_disp.o
                0x0000000008013b78                lv_disp_set_active
 .text.lv_disp_get_active
                0x0000000008013b90        0xc ././lvgl/lv_hal/lv_hal_disp.o
                0x0000000008013b90                lv_disp_get_active
 .text.lv_disp_next
                0x0000000008013b9c       0x10 ././lvgl/lv_hal/lv_hal_disp.o
                0x0000000008013b9c                lv_disp_next
 .text.lv_disp_fill
                0x0000000008013bac       0x20 ././lvgl/lv_hal/lv_hal_disp.o
                0x0000000008013bac                lv_disp_fill
 .text.lv_disp_flush
                0x0000000008013bcc       0x20 ././lvgl/lv_hal/lv_hal_disp.o
                0x0000000008013bcc                lv_disp_flush
 .text.lv_disp_map
                0x0000000008013bec       0x20 ././lvgl/lv_hal/lv_hal_disp.o
                0x0000000008013bec                lv_disp_map
 .text          0x0000000008013c0c        0x0 ././lvgl/lv_misc/lv_ll.o
 .text.lv_ll_init
                0x0000000008013c0c       0x14 ././lvgl/lv_misc/lv_ll.o
                0x0000000008013c0c                lv_ll_init
 .text.lv_ll_ins_head
                0x0000000008013c20       0x30 ././lvgl/lv_misc/lv_ll.o
                0x0000000008013c20                lv_ll_ins_head
 .text.lv_ll_ins_prev
                0x0000000008013c50       0x40 ././lvgl/lv_misc/lv_ll.o
                0x0000000008013c50                lv_ll_ins_prev
 .text.lv_ll_ins_tail
                0x0000000008013c90       0x34 ././lvgl/lv_misc/lv_ll.o
                0x0000000008013c90                lv_ll_ins_tail
 .text.lv_ll_rem
                0x0000000008013cc4       0x60 ././lvgl/lv_misc/lv_ll.o
                0x0000000008013cc4                lv_ll_rem
 .text.lv_ll_clear
                0x0000000008013d24       0x28 ././lvgl/lv_misc/lv_ll.o
                0x0000000008013d24                lv_ll_clear
 .text.lv_ll_chg_list
                0x0000000008013d4c       0x30 ././lvgl/lv_misc/lv_ll.o
                0x0000000008013d4c                lv_ll_chg_list
 .text.lv_ll_get_head
                0x0000000008013d7c        0x8 ././lvgl/lv_misc/lv_ll.o
                0x0000000008013d7c                lv_ll_get_head
 .text.lv_ll_get_tail
                0x0000000008013d84        0x8 ././lvgl/lv_misc/lv_ll.o
                0x0000000008013d84                lv_ll_get_tail
 .text.lv_ll_get_next
                0x0000000008013d8c        0xc ././lvgl/lv_misc/lv_ll.o
                0x0000000008013d8c                lv_ll_get_next
 .text.lv_ll_get_prev
                0x0000000008013d98        0x8 ././lvgl/lv_misc/lv_ll.o
                0x0000000008013d98                lv_ll_get_prev
 .text.lv_ll_swap
                0x0000000008013da0        0x4 ././lvgl/lv_misc/lv_ll.o
                0x0000000008013da0                lv_ll_swap
 .text.lv_ll_move_before
                0x0000000008013da4       0x40 ././lvgl/lv_misc/lv_ll.o
                0x0000000008013da4                lv_ll_move_before
 .text          0x0000000008013de4        0x0 ././lvgl/lv_misc/lv_circ.o
 .text.lv_circ_init
                0x0000000008013de4       0x14 ././lvgl/lv_misc/lv_circ.o
                0x0000000008013de4                lv_circ_init
 .text.lv_circ_cont
                0x0000000008013df8       0x14 ././lvgl/lv_misc/lv_circ.o
                0x0000000008013df8                lv_circ_cont
 .text.lv_circ_next
                0x0000000008013e0c       0x3c ././lvgl/lv_misc/lv_circ.o
                0x0000000008013e0c                lv_circ_next
 .text          0x0000000008013e48        0x0 ././lvgl/lv_misc/lv_txt.o
 .text.lv_txt_is_cmd
                0x0000000008013e48       0x40 ././lvgl/lv_misc/lv_txt.o
                0x0000000008013e48                lv_txt_is_cmd
 .text.lv_txt_utf8_size
                0x0000000008013e88       0x30 ././lvgl/lv_misc/lv_txt.o
                0x0000000008013e88                lv_txt_utf8_size
 .text.lv_txt_unicode_to_utf8
                0x0000000008013eb8       0x9c ././lvgl/lv_misc/lv_txt.o
                0x0000000008013eb8                lv_txt_unicode_to_utf8
 .text.lv_txt_utf8_next
                0x0000000008013f54       0xe4 ././lvgl/lv_misc/lv_txt.o
                0x0000000008013f54                lv_txt_utf8_next
 .text.lv_txt_get_width.part.2
                0x0000000008014038       0xb8 ././lvgl/lv_misc/lv_txt.o
 .text.lv_txt_get_width
                0x00000000080140f0       0x18 ././lvgl/lv_misc/lv_txt.o
                0x00000000080140f0                lv_txt_get_width
 .text.lv_txt_utf8_prev
                0x0000000008014108       0x4c ././lvgl/lv_misc/lv_txt.o
                0x0000000008014108                lv_txt_utf8_prev
 .text.lv_txt_get_next_line.part.4
                0x0000000008014154      0x15c ././lvgl/lv_misc/lv_txt.o
 .text.lv_txt_get_next_line
                0x00000000080142b0       0x18 ././lvgl/lv_misc/lv_txt.o
                0x00000000080142b0                lv_txt_get_next_line
 .text.lv_txt_get_size
                0x00000000080142c8       0xc8 ././lvgl/lv_misc/lv_txt.o
                0x00000000080142c8                lv_txt_get_size
 .text.txt_utf8_get_byte_id
                0x0000000008014390       0x4c ././lvgl/lv_misc/lv_txt.o
                0x0000000008014390                txt_utf8_get_byte_id
 .text.lv_txt_ins
                0x00000000080143dc       0x50 ././lvgl/lv_misc/lv_txt.o
                0x00000000080143dc                lv_txt_ins
 .text.lv_txt_cut
                0x000000000801442c       0x40 ././lvgl/lv_misc/lv_txt.o
                0x000000000801442c                lv_txt_cut
 .text.lv_txt_utf8_get_char_id
                0x000000000801446c       0x30 ././lvgl/lv_misc/lv_txt.o
                0x000000000801446c                lv_txt_utf8_get_char_id
 .text.lv_txt_get_length
                0x000000000801449c       0x30 ././lvgl/lv_misc/lv_txt.o
                0x000000000801449c                lv_txt_get_length
 .text          0x00000000080144cc        0x0 ././lvgl/lv_misc/lv_task.o
 .text.lv_task_exec
                0x00000000080144cc       0x40 ././lvgl/lv_misc/lv_task.o
 .text.lv_task_init
                0x000000000801450c       0x1c ././lvgl/lv_misc/lv_task.o
                0x000000000801450c                lv_task_init
 .text.lv_task_handler
                0x0000000008014528       0xe8 ././lvgl/lv_misc/lv_task.o
                0x0000000008014528                lv_task_handler
 .text.lv_task_create
                0x0000000008014610       0x74 ././lvgl/lv_misc/lv_task.o
                0x0000000008014610                lv_task_create
 .text.lv_task_del
                0x0000000008014684       0x1c ././lvgl/lv_misc/lv_task.o
                0x0000000008014684                lv_task_del
 .text.lv_task_set_prio
                0x00000000080146a0       0x64 ././lvgl/lv_misc/lv_task.o
                0x00000000080146a0                lv_task_set_prio
 .text.lv_task_set_period
                0x0000000008014704        0x4 ././lvgl/lv_misc/lv_task.o
                0x0000000008014704                lv_task_set_period
 .text.lv_task_ready
                0x0000000008014708       0x14 ././lvgl/lv_misc/lv_task.o
                0x0000000008014708                lv_task_ready
 .text.lv_task_once
                0x000000000801471c        0xc ././lvgl/lv_misc/lv_task.o
                0x000000000801471c                lv_task_once
 .text.lv_task_reset
                0x0000000008014728        0xc ././lvgl/lv_misc/lv_task.o
                0x0000000008014728                lv_task_reset
 .text.lv_task_enable
                0x0000000008014734        0xc ././lvgl/lv_misc/lv_task.o
                0x0000000008014734                lv_task_enable
 .text.lv_task_get_idle
                0x0000000008014740        0xc ././lvgl/lv_misc/lv_task.o
                0x0000000008014740                lv_task_get_idle
 .text          0x000000000801474c        0x0 ././lvgl/lv_misc/lv_math.o
 .text.lv_math_num_to_str
                0x000000000801474c       0xc4 ././lvgl/lv_misc/lv_math.o
                0x000000000801474c                lv_math_num_to_str
 .text          0x0000000008014810        0x0 ././lvgl/lv_misc/lv_fs.o
 .text.lv_fs_get_drv
                0x0000000008014810       0x30 ././lvgl/lv_misc/lv_fs.o
 .text.lv_fs_init
                0x0000000008014840        0xc ././lvgl/lv_misc/lv_fs.o
                0x0000000008014840                lv_fs_init
 .text.lv_fs_open
                0x000000000801484c       0x78 ././lvgl/lv_misc/lv_fs.o
                0x000000000801484c                lv_fs_open
 .text.lv_fs_close
                0x00000000080148c4       0x2c ././lvgl/lv_misc/lv_fs.o
                0x00000000080148c4                lv_fs_close
 .text.lv_fs_remove
                0x00000000080148f0       0x4c ././lvgl/lv_misc/lv_fs.o
                0x00000000080148f0                lv_fs_remove
 .text.lv_fs_read
                0x000000000801493c       0x34 ././lvgl/lv_misc/lv_fs.o
                0x000000000801493c                lv_fs_read
 .text.lv_fs_write
                0x0000000008014970       0x34 ././lvgl/lv_misc/lv_fs.o
                0x0000000008014970                lv_fs_write
 .text.lv_fs_seek
                0x00000000080149a4       0x14 ././lvgl/lv_misc/lv_fs.o
                0x00000000080149a4                lv_fs_seek
 .text.lv_fs_tell
                0x00000000080149b8       0x14 ././lvgl/lv_misc/lv_fs.o
                0x00000000080149b8                lv_fs_tell
 .text.lv_fs_size
                0x00000000080149cc       0x18 ././lvgl/lv_misc/lv_fs.o
                0x00000000080149cc                lv_fs_size
 .text.lv_fs_dir_open
                0x00000000080149e4       0x54 ././lvgl/lv_misc/lv_fs.o
                0x00000000080149e4                lv_fs_dir_open
 .text.lv_fs_dir_read
                0x0000000008014a38       0x18 ././lvgl/lv_misc/lv_fs.o
                0x0000000008014a38                lv_fs_dir_read
 .text.lv_fs_dir_close
                0x0000000008014a50       0x30 ././lvgl/lv_misc/lv_fs.o
                0x0000000008014a50                lv_fs_dir_close
 .text.lv_fs_free
                0x0000000008014a80       0x3c ././lvgl/lv_misc/lv_fs.o
                0x0000000008014a80                lv_fs_free
 .text.lv_fs_add_drv
                0x0000000008014abc       0x38 ././lvgl/lv_misc/lv_fs.o
                0x0000000008014abc                lv_fs_add_drv
 .text.lv_fs_get_letters
                0x0000000008014af4       0x3c ././lvgl/lv_misc/lv_fs.o
                0x0000000008014af4                lv_fs_get_letters
 .text.lv_fs_get_ext
                0x0000000008014b30       0x50 ././lvgl/lv_misc/lv_fs.o
                0x0000000008014b30                lv_fs_get_ext
 .text.lv_fs_up
                0x0000000008014b80       0x58 ././lvgl/lv_misc/lv_fs.o
                0x0000000008014b80                lv_fs_up
 .text.lv_fs_get_last
                0x0000000008014bd8       0x58 ././lvgl/lv_misc/lv_fs.o
                0x0000000008014bd8                lv_fs_get_last
 .text          0x0000000008014c30        0x0 ././lvgl/lv_misc/lv_templ.o
 .text          0x0000000008014c30        0x0 ././lvgl/lv_misc/lv_trigo.o
 .text.lv_trigo_sin
                0x0000000008014c30       0x70 ././lvgl/lv_misc/lv_trigo.o
                0x0000000008014c30                lv_trigo_sin
 .text          0x0000000008014ca0        0x0 ././lvgl/lv_misc/lv_ufs.o
 .text.lv_ufs_ready
                0x0000000008014ca0        0xc ././lvgl/lv_misc/lv_ufs.o
                0x0000000008014ca0                lv_ufs_ready
 .text.lv_ufs_close
                0x0000000008014cac       0x10 ././lvgl/lv_misc/lv_ufs.o
                0x0000000008014cac                lv_ufs_close
 .text.lv_ufs_tell
                0x0000000008014cbc        0x8 ././lvgl/lv_misc/lv_ufs.o
                0x0000000008014cbc                lv_ufs_tell
 .text.lv_ufs_size
                0x0000000008014cc4        0xc ././lvgl/lv_misc/lv_ufs.o
                0x0000000008014cc4                lv_ufs_size
 .text.lv_ufs_dir_open
                0x0000000008014cd0       0x10 ././lvgl/lv_misc/lv_ufs.o
                0x0000000008014cd0                lv_ufs_dir_open
 .text.lv_ufs_dir_close
                0x0000000008014ce0        0x4 ././lvgl/lv_misc/lv_ufs.o
                0x0000000008014ce0                lv_ufs_dir_close
 .text.lv_ufs_free
                0x0000000008014ce4        0x8 ././lvgl/lv_misc/lv_ufs.o
                0x0000000008014ce4                lv_ufs_free
 .text.lv_ufs_ent_get
                0x0000000008014cec       0x38 ././lvgl/lv_misc/lv_ufs.o
 .text.lv_ufs_open
                0x0000000008014d24       0x8c ././lvgl/lv_misc/lv_ufs.o
                0x0000000008014d24                lv_ufs_open
 .text.lv_ufs_dir_read
                0x0000000008014db0       0x34 ././lvgl/lv_misc/lv_ufs.o
                0x0000000008014db0                lv_ufs_dir_read
 .text.lv_ufs_remove
                0x0000000008014de4       0x4c ././lvgl/lv_misc/lv_ufs.o
                0x0000000008014de4                lv_ufs_remove
 .text.lv_ufs_read
                0x0000000008014e30       0x40 ././lvgl/lv_misc/lv_ufs.o
                0x0000000008014e30                lv_ufs_read
 .text.lv_ufs_write
                0x0000000008014e70       0x58 ././lvgl/lv_misc/lv_ufs.o
                0x0000000008014e70                lv_ufs_write
 .text.lv_ufs_seek
                0x0000000008014ec8       0x34 ././lvgl/lv_misc/lv_ufs.o
                0x0000000008014ec8                lv_ufs_seek
 .text.lv_ufs_trunc
                0x0000000008014efc       0x28 ././lvgl/lv_misc/lv_ufs.o
                0x0000000008014efc                lv_ufs_trunc
 .text.lv_ufs_init
                0x0000000008014f24       0xac ././lvgl/lv_misc/lv_ufs.o
                0x0000000008014f24                lv_ufs_init
 .text.lv_ufs_create_const
                0x0000000008014fd0       0x60 ././lvgl/lv_misc/lv_ufs.o
                0x0000000008014fd0                lv_ufs_create_const
 .text          0x0000000008015030        0x0 ././lvgl/lv_misc/lv_color.o
 .text.lv_color_hsv_to_rgb
                0x0000000008015030       0xf8 ././lvgl/lv_misc/lv_color.o
                0x0000000008015030                lv_color_hsv_to_rgb
 .text.lv_color_rgb_to_hsv
                0x0000000008015128       0xa4 ././lvgl/lv_misc/lv_color.o
                0x0000000008015128                lv_color_rgb_to_hsv
 .text          0x00000000080151cc        0x0 ././lvgl/lv_misc/lv_anim.o
 .text.anim_task
                0x00000000080151cc       0xe4 ././lvgl/lv_misc/lv_anim.o
 .text.lv_anim_init
                0x00000000080152b0       0x30 ././lvgl/lv_misc/lv_anim.o
                0x00000000080152b0                lv_anim_init
 .text.lv_anim_del
                0x00000000080152e0       0x64 ././lvgl/lv_misc/lv_anim.o
                0x00000000080152e0                lv_anim_del
 .text.lv_anim_create
                0x0000000008015344       0x64 ././lvgl/lv_misc/lv_anim.o
                0x0000000008015344                lv_anim_create
 .text.lv_anim_speed_to_time
                0x00000000080153a8       0x2c ././lvgl/lv_misc/lv_anim.o
                0x00000000080153a8                lv_anim_speed_to_time
 .text.lv_anim_path_linear
                0x00000000080153d4       0x28 ././lvgl/lv_misc/lv_anim.o
                0x00000000080153d4                lv_anim_path_linear
 .text.lv_anim_path_step
                0x00000000080153fc       0x1c ././lvgl/lv_misc/lv_anim.o
                0x00000000080153fc                lv_anim_path_step
 .text          0x0000000008015418        0x0 ././lvgl/lv_misc/lv_mem.o
 .text.lv_mem_alloc.part.0
                0x0000000008015418       0x28 ././lvgl/lv_misc/lv_mem.o
 .text.lv_mem_init
                0x0000000008015440        0x4 ././lvgl/lv_misc/lv_mem.o
                0x0000000008015440                lv_mem_init
 .text.lv_mem_alloc
                0x0000000008015444       0x10 ././lvgl/lv_misc/lv_mem.o
                0x0000000008015444                lv_mem_alloc
 .text.lv_mem_free
                0x0000000008015454       0x20 ././lvgl/lv_misc/lv_mem.o
                0x0000000008015454                lv_mem_free
 .text.lv_mem_realloc
                0x0000000008015474       0x80 ././lvgl/lv_misc/lv_mem.o
                0x0000000008015474                lv_mem_realloc
 .text.lv_mem_defrag
                0x00000000080154f4        0x4 ././lvgl/lv_misc/lv_mem.o
                0x00000000080154f4                lv_mem_defrag
 .text.lv_mem_monitor
                0x00000000080154f8       0x10 ././lvgl/lv_misc/lv_mem.o
                0x00000000080154f8                lv_mem_monitor
 .text.lv_mem_get_size
                0x0000000008015508       0x1c ././lvgl/lv_misc/lv_mem.o
                0x0000000008015508                lv_mem_get_size
 .text          0x0000000008015524        0x0 ././lvgl/lv_misc/lv_font.o
 .text.lv_font_init
                0x0000000008015524        0x4 ././lvgl/lv_misc/lv_font.o
                0x0000000008015524                lv_font_init
 .text.lv_font_add
                0x0000000008015528       0x14 ././lvgl/lv_misc/lv_font.o
                0x0000000008015528                lv_font_add
 .text.lv_font_get_bitmap
                0x000000000801553c       0x24 ././lvgl/lv_misc/lv_font.o
                0x000000000801553c                lv_font_get_bitmap
 .text.lv_font_get_width
                0x0000000008015560       0x28 ././lvgl/lv_misc/lv_font.o
                0x0000000008015560                lv_font_get_width
 .text.lv_font_get_bpp
                0x0000000008015588       0x20 ././lvgl/lv_misc/lv_font.o
                0x0000000008015588                lv_font_get_bpp
 .text.lv_font_get_bitmap_continuous
                0x00000000080155a8       0x20 ././lvgl/lv_misc/lv_font.o
                0x00000000080155a8                lv_font_get_bitmap_continuous
 .text.lv_font_get_bitmap_sparse
                0x00000000080155c8       0x48 ././lvgl/lv_misc/lv_font.o
                0x00000000080155c8                lv_font_get_bitmap_sparse
 .text.lv_font_get_width_continuous
                0x0000000008015610       0x1c ././lvgl/lv_misc/lv_font.o
                0x0000000008015610                lv_font_get_width_continuous
 .text.lv_font_get_width_sparse
                0x000000000801562c       0x48 ././lvgl/lv_misc/lv_font.o
                0x000000000801562c                lv_font_get_width_sparse
 .text          0x0000000008015674        0x0 ././lvgl/lv_misc/lv_fonts/lv_font_dejavu_20_cyrillic.o
 .text          0x0000000008015674        0x0 ././lvgl/lv_misc/lv_fonts/lv_font_dejavu_30.o
 .text          0x0000000008015674        0x0 ././lvgl/lv_misc/lv_fonts/lv_font_dejavu_30_cyrillic.o
 .text          0x0000000008015674        0x0 ././lvgl/lv_misc/lv_fonts/lv_font_dejavu_10_cyrillic.o
 .text          0x0000000008015674        0x0 ././lvgl/lv_misc/lv_fonts/lv_font_dejavu_10_latin_sup.o
 .text          0x0000000008015674        0x0 ././lvgl/lv_misc/lv_fonts/lv_font_symbol_40.o
 .text          0x0000000008015674        0x0 ././lvgl/lv_misc/lv_fonts/lv_font_symbol_30.o
 .text          0x0000000008015674        0x0 ././lvgl/lv_misc/lv_fonts/lv_font_symbol_20.o
 .text          0x0000000008015674        0x0 ././lvgl/lv_misc/lv_fonts/lv_font_dejavu_30_latin_sup.o
 .text          0x0000000008015674        0x0 ././lvgl/lv_misc/lv_fonts/lv_font_dejavu_40_latin_sup.o
 .text          0x0000000008015674        0x0 ././lvgl/lv_misc/lv_fonts/lv_font_symbol_10.o
 .text          0x0000000008015674        0x0 ././lvgl/lv_misc/lv_fonts/lv_font_dejavu_20_latin_sup.o
 .text          0x0000000008015674        0x0 ././lvgl/lv_misc/lv_fonts/lv_font_dejavu_20.o
 .text          0x0000000008015674        0x0 ././lvgl/lv_misc/lv_fonts/lv_font_dejavu_40_cyrillic.o
 .text          0x0000000008015674        0x0 ././lvgl/lv_misc/lv_fonts/lv_font_dejavu_40.o
 .text          0x0000000008015674        0x0 ././lvgl/lv_misc/lv_fonts/lv_font_dejavu_10.o
 .text          0x0000000008015674        0x0 ././lvgl/lv_misc/lv_area.o
 .text.lv_area_set
                0x0000000008015674       0x14 ././lvgl/lv_misc/lv_area.o
                0x0000000008015674                lv_area_set
 .text.lv_area_set_width
                0x0000000008015688        0xc ././lvgl/lv_misc/lv_area.o
                0x0000000008015688                lv_area_set_width
 .text.lv_area_set_height
                0x0000000008015694        0xc ././lvgl/lv_misc/lv_area.o
                0x0000000008015694                lv_area_set_height
 .text.lv_area_set_pos
                0x00000000080156a0       0x20 ././lvgl/lv_misc/lv_area.o
                0x00000000080156a0                lv_area_set_pos
 .text.lv_area_get_size
                0x00000000080156c0       0x24 ././lvgl/lv_misc/lv_area.o
                0x00000000080156c0                lv_area_get_size
 .text.lv_area_union
                0x00000000080156e4       0x58 ././lvgl/lv_misc/lv_area.o
                0x00000000080156e4                lv_area_union
 .text.lv_area_join
                0x000000000801573c       0x48 ././lvgl/lv_misc/lv_area.o
                0x000000000801573c                lv_area_join
 .text.lv_area_is_point_on
                0x0000000008015784       0x34 ././lvgl/lv_misc/lv_area.o
                0x0000000008015784                lv_area_is_point_on
 .text.lv_area_is_on
                0x00000000080157b8       0x3c ././lvgl/lv_misc/lv_area.o
                0x00000000080157b8                lv_area_is_on
 .text.lv_area_is_in
                0x00000000080157f4       0x3c ././lvgl/lv_misc/lv_area.o
                0x00000000080157f4                lv_area_is_in
 .text          0x0000000008015830        0x0 ././mew.o
 .text.startup.main
                0x0000000008015830       0x90 ././mew.o
                0x0000000008015830                main
 .text          0x00000000080158c0        0x0 ././app/pwd_generator/mew_passgen.o
 .text.mew_create_password
                0x00000000080158c0      0x114 ././app/pwd_generator/mew_passgen.o
                0x00000000080158c0                mew_create_password
 .text          0x00000000080159d4        0x0 ././app/pwd_generator/mew_xor_algo.o
 .text.mew_xor  0x00000000080159d4       0xac ././app/pwd_generator/mew_xor_algo.o
                0x00000000080159d4                mew_xor
 .text.mew_xor_keygen
                0x0000000008015a80       0x24 ././app/pwd_generator/mew_xor_algo.o
                0x0000000008015a80                mew_xor_keygen
 .text.mew_xor_byte
                0x0000000008015aa4       0x80 ././app/pwd_generator/mew_xor_algo.o
                0x0000000008015aa4                mew_xor_byte
 .text          0x0000000008015b24        0x0 ././app/packet_parser/parser.o
 .text.__mew_pp_reset
                0x0000000008015b24       0x58 ././app/packet_parser/parser.o
 .text.mew_comm_is_payload_present
                0x0000000008015b7c        0xc ././app/packet_parser/parser.o
                0x0000000008015b7c                mew_comm_is_payload_present
 .text.mew_comm_get_payload
                0x0000000008015b88       0x28 ././app/packet_parser/parser.o
                0x0000000008015b88                mew_comm_get_payload
 .text.mew_comm_add_byte
                0x0000000008015bb0      0x1a0 ././app/packet_parser/parser.o
                0x0000000008015bb0                mew_comm_add_byte
 .text.send_ok_packet
                0x0000000008015d50       0x94 ././app/packet_parser/parser.o
                0x0000000008015d50                send_ok_packet
 .text.mew_comm_handler
                0x0000000008015de4       0xac ././app/packet_parser/parser.o
                0x0000000008015de4                mew_comm_handler
 .text          0x0000000008015e90        0x0 ././debug.o
 .text.mew_debug_die
                0x0000000008015e90       0x10 ././debug.o
                0x0000000008015e90                mew_debug_die
 .text.mew_debug_die_with_message
                0x0000000008015ea0        0xc ././debug.o
                0x0000000008015ea0                mew_debug_die_with_message
 .text.mew_debug_print
                0x0000000008015eac        0x4 ././debug.o
                0x0000000008015eac                mew_debug_print
 .text.mew_debug_print_hex
                0x0000000008015eb0        0x4 ././debug.o
                0x0000000008015eb0                mew_debug_print_hex
 .text.hard_fault_handler
                0x0000000008015eb4        0xc ././debug.o
                0x0000000008015eb4                hard_fault_handler
 .text.usage_fault_handler
                0x0000000008015ec0        0xc ././debug.o
                0x0000000008015ec0                usage_fault_handler
 .text.bus_fault_handler
                0x0000000008015ecc        0xc ././debug.o
                0x0000000008015ecc                bus_fault_handler
 .text          0x0000000008015ed8      0xdb4 ././drivers/hw_crypt/P256-cortex-m4-ecdh-speedopt-gcc.o
                0x0000000008016a40                P256_pointmult
                0x0000000008016c00                P256_ecdh_keygen
                0x0000000008016c08                P256_ecdh_shared_secret
 .text          0x0000000008016c8c        0x0 /home/konata/devel/libopencm3/lib/libopencm3_stm32f4.a(rcc.o)
 .text.rcc_osc_ready_int_clear
                0x0000000008016c8c       0x5c /home/konata/devel/libopencm3/lib/libopencm3_stm32f4.a(rcc.o)
                0x0000000008016c8c                rcc_osc_ready_int_clear
 .text.rcc_osc_ready_int_enable
                0x0000000008016ce8       0x5c /home/konata/devel/libopencm3/lib/libopencm3_stm32f4.a(rcc.o)
                0x0000000008016ce8                rcc_osc_ready_int_enable
 .text.rcc_osc_ready_int_disable
                0x0000000008016d44       0x5c /home/konata/devel/libopencm3/lib/libopencm3_stm32f4.a(rcc.o)
                0x0000000008016d44                rcc_osc_ready_int_disable
 .text.rcc_osc_ready_int_flag
                0x0000000008016da0       0x60 /home/konata/devel/libopencm3/lib/libopencm3_stm32f4.a(rcc.o)
                0x0000000008016da0                rcc_osc_ready_int_flag
 .text.rcc_css_int_clear
                0x0000000008016e00       0x10 /home/konata/devel/libopencm3/lib/libopencm3_stm32f4.a(rcc.o)
                0x0000000008016e00                rcc_css_int_clear
 .text.rcc_css_int_flag
                0x0000000008016e10       0x10 /home/konata/devel/libopencm3/lib/libopencm3_stm32f4.a(rcc.o)
                0x0000000008016e10                rcc_css_int_flag
 .text.rcc_is_osc_ready
                0x0000000008016e20       0x5c /home/konata/devel/libopencm3/lib/libopencm3_stm32f4.a(rcc.o)
                0x0000000008016e20                rcc_is_osc_ready
 .text.rcc_wait_for_osc_ready
                0x0000000008016e7c       0x10 /home/konata/devel/libopencm3/lib/libopencm3_stm32f4.a(rcc.o)
                0x0000000008016e7c                rcc_wait_for_osc_ready
 .text.rcc_wait_for_sysclk_status
                0x0000000008016e8c       0x3c /home/konata/devel/libopencm3/lib/libopencm3_stm32f4.a(rcc.o)
                0x0000000008016e8c                rcc_wait_for_sysclk_status
 .text.rcc_osc_on
                0x0000000008016ec8       0x58 /home/konata/devel/libopencm3/lib/libopencm3_stm32f4.a(rcc.o)
                0x0000000008016ec8                rcc_osc_on
 .text.rcc_osc_off
                0x0000000008016f20       0x58 /home/konata/devel/libopencm3/lib/libopencm3_stm32f4.a(rcc.o)
                0x0000000008016f20                rcc_osc_off
 .text.rcc_css_enable
                0x0000000008016f78       0x10 /home/konata/devel/libopencm3/lib/libopencm3_stm32f4.a(rcc.o)
                0x0000000008016f78                rcc_css_enable
 .text.rcc_css_disable
                0x0000000008016f88       0x10 /home/konata/devel/libopencm3/lib/libopencm3_stm32f4.a(rcc.o)
                0x0000000008016f88                rcc_css_disable
 .text.rcc_osc_bypass_enable
                0x0000000008016f98       0x28 /home/konata/devel/libopencm3/lib/libopencm3_stm32f4.a(rcc.o)
                0x0000000008016f98                rcc_osc_bypass_enable
 .text.rcc_osc_bypass_disable
                0x0000000008016fc0       0x28 /home/konata/devel/libopencm3/lib/libopencm3_stm32f4.a(rcc.o)
                0x0000000008016fc0                rcc_osc_bypass_disable
 .text.rcc_pllsai_config
                0x0000000008016fe8       0x2c /home/konata/devel/libopencm3/lib/libopencm3_stm32f4.a(rcc.o)
                0x0000000008016fe8                rcc_pllsai_config
 .text.rcc_pllsai_postscalers
                0x0000000008017014       0x24 /home/konata/devel/libopencm3/lib/libopencm3_stm32f4.a(rcc.o)
                0x0000000008017014                rcc_pllsai_postscalers
 .text.rcc_set_sysclk_source
                0x0000000008017038       0x14 /home/konata/devel/libopencm3/lib/libopencm3_stm32f4.a(rcc.o)
                0x0000000008017038                rcc_set_sysclk_source
 .text.rcc_set_pll_source
                0x000000000801704c       0x14 /home/konata/devel/libopencm3/lib/libopencm3_stm32f4.a(rcc.o)
                0x000000000801704c                rcc_set_pll_source
 .text.rcc_set_ppre2
                0x0000000008017060       0x14 /home/konata/devel/libopencm3/lib/libopencm3_stm32f4.a(rcc.o)
                0x0000000008017060                rcc_set_ppre2
 .text.rcc_set_ppre1
                0x0000000008017074       0x14 /home/konata/devel/libopencm3/lib/libopencm3_stm32f4.a(rcc.o)
                0x0000000008017074                rcc_set_ppre1
 .text.rcc_set_hpre
                0x0000000008017088       0x14 /home/konata/devel/libopencm3/lib/libopencm3_stm32f4.a(rcc.o)
                0x0000000008017088                rcc_set_hpre
 .text.rcc_set_rtcpre
                0x000000000801709c       0x14 /home/konata/devel/libopencm3/lib/libopencm3_stm32f4.a(rcc.o)
                0x000000000801709c                rcc_set_rtcpre
 .text.rcc_set_main_pll_hsi
                0x00000000080170b0       0x44 /home/konata/devel/libopencm3/lib/libopencm3_stm32f4.a(rcc.o)
                0x00000000080170b0                rcc_set_main_pll_hsi
 .text.rcc_set_main_pll_hse
                0x00000000080170f4       0x48 /home/konata/devel/libopencm3/lib/libopencm3_stm32f4.a(rcc.o)
                0x00000000080170f4                rcc_set_main_pll_hse
 .text.rcc_system_clock_source
                0x000000000801713c       0x10 /home/konata/devel/libopencm3/lib/libopencm3_stm32f4.a(rcc.o)
                0x000000000801713c                rcc_system_clock_source
 .text.rcc_clock_setup_hse_3v3
                0x000000000801714c       0xa8 /home/konata/devel/libopencm3/lib/libopencm3_stm32f4.a(rcc.o)
                0x000000000801714c                rcc_clock_setup_hse_3v3
 .text          0x00000000080171f4        0x0 /home/konata/devel/libopencm3/lib/libopencm3_stm32f4.a(crc_common_all.o)
 .text.crc_reset
                0x00000000080171f4       0x10 /home/konata/devel/libopencm3/lib/libopencm3_stm32f4.a(crc_common_all.o)
                0x00000000080171f4                crc_reset
 .text.crc_calculate
                0x0000000008017204        0xc /home/konata/devel/libopencm3/lib/libopencm3_stm32f4.a(crc_common_all.o)
                0x0000000008017204                crc_calculate
 .text.crc_calculate_block
                0x0000000008017210       0x20 /home/konata/devel/libopencm3/lib/libopencm3_stm32f4.a(crc_common_all.o)
                0x0000000008017210                crc_calculate_block
 .text          0x0000000008017230        0x0 /home/konata/devel/libopencm3/lib/libopencm3_stm32f4.a(dma_common_f24.o)
 .text.dma_stream_reset
                0x0000000008017230       0x4c /home/konata/devel/libopencm3/lib/libopencm3_stm32f4.a(dma_common_f24.o)
                0x0000000008017230                dma_stream_reset
 .text.dma_clear_interrupt_flags
                0x000000000801727c       0x1e /home/konata/devel/libopencm3/lib/libopencm3_stm32f4.a(dma_common_f24.o)
                0x000000000801727c                dma_clear_interrupt_flags
 .text.dma_get_interrupt_flag
                0x000000000801729a       0x28 /home/konata/devel/libopencm3/lib/libopencm3_stm32f4.a(dma_common_f24.o)
                0x000000000801729a                dma_get_interrupt_flag
 .text.dma_set_transfer_mode
                0x00000000080172c2       0x22 /home/konata/devel/libopencm3/lib/libopencm3_stm32f4.a(dma_common_f24.o)
                0x00000000080172c2                dma_set_transfer_mode
 .text.dma_set_priority
                0x00000000080172e4       0x18 /home/konata/devel/libopencm3/lib/libopencm3_stm32f4.a(dma_common_f24.o)
                0x00000000080172e4                dma_set_priority
 .text.dma_set_memory_size
                0x00000000080172fc       0x18 /home/konata/devel/libopencm3/lib/libopencm3_stm32f4.a(dma_common_f24.o)
                0x00000000080172fc                dma_set_memory_size
 .text.dma_set_peripheral_size
                0x0000000008017314       0x18 /home/konata/devel/libopencm3/lib/libopencm3_stm32f4.a(dma_common_f24.o)
                0x0000000008017314                dma_set_peripheral_size
 .text.dma_enable_memory_increment_mode
                0x000000000801732c       0x12 /home/konata/devel/libopencm3/lib/libopencm3_stm32f4.a(dma_common_f24.o)
                0x000000000801732c                dma_enable_memory_increment_mode
 .text.dma_disable_memory_increment_mode
                0x000000000801733e       0x12 /home/konata/devel/libopencm3/lib/libopencm3_stm32f4.a(dma_common_f24.o)
                0x000000000801733e                dma_disable_memory_increment_mode
 .text.dma_enable_peripheral_increment_mode
                0x0000000008017350       0x16 /home/konata/devel/libopencm3/lib/libopencm3_stm32f4.a(dma_common_f24.o)
                0x0000000008017350                dma_enable_peripheral_increment_mode
 .text.dma_disable_peripheral_increment_mode
                0x0000000008017366       0x12 /home/konata/devel/libopencm3/lib/libopencm3_stm32f4.a(dma_common_f24.o)
                0x0000000008017366                dma_disable_peripheral_increment_mode
 .text.dma_enable_fixed_peripheral_increment_mode
                0x0000000008017378       0x12 /home/konata/devel/libopencm3/lib/libopencm3_stm32f4.a(dma_common_f24.o)
                0x0000000008017378                dma_enable_fixed_peripheral_increment_mode
 .text.dma_enable_circular_mode
                0x000000000801738a       0x12 /home/konata/devel/libopencm3/lib/libopencm3_stm32f4.a(dma_common_f24.o)
                0x000000000801738a                dma_enable_circular_mode
 .text.dma_channel_select
                0x000000000801739c       0x10 /home/konata/devel/libopencm3/lib/libopencm3_stm32f4.a(dma_common_f24.o)
                0x000000000801739c                dma_channel_select
 .text.dma_set_memory_burst
                0x00000000080173ac       0x14 /home/konata/devel/libopencm3/lib/libopencm3_stm32f4.a(dma_common_f24.o)
                0x00000000080173ac                dma_set_memory_burst
 .text.dma_set_peripheral_burst
                0x00000000080173c0       0x14 /home/konata/devel/libopencm3/lib/libopencm3_stm32f4.a(dma_common_f24.o)
                0x00000000080173c0                dma_set_peripheral_burst
 .text.dma_set_initial_target
                0x00000000080173d4       0x1a /home/konata/devel/libopencm3/lib/libopencm3_stm32f4.a(dma_common_f24.o)
                0x00000000080173d4                dma_set_initial_target
 .text.dma_get_target
                0x00000000080173ee       0x10 /home/konata/devel/libopencm3/lib/libopencm3_stm32f4.a(dma_common_f24.o)
                0x00000000080173ee                dma_get_target
 .text.dma_enable_double_buffer_mode
                0x00000000080173fe       0x12 /home/konata/devel/libopencm3/lib/libopencm3_stm32f4.a(dma_common_f24.o)
                0x00000000080173fe                dma_enable_double_buffer_mode
 .text.dma_disable_double_buffer_mode
                0x0000000008017410       0x12 /home/konata/devel/libopencm3/lib/libopencm3_stm32f4.a(dma_common_f24.o)
                0x0000000008017410                dma_disable_double_buffer_mode
 .text.dma_set_peripheral_flow_control
                0x0000000008017422       0x12 /home/konata/devel/libopencm3/lib/libopencm3_stm32f4.a(dma_common_f24.o)
                0x0000000008017422                dma_set_peripheral_flow_control
 .text.dma_set_dma_flow_control
                0x0000000008017434       0x12 /home/konata/devel/libopencm3/lib/libopencm3_stm32f4.a(dma_common_f24.o)
                0x0000000008017434                dma_set_dma_flow_control
 .text.dma_enable_transfer_error_interrupt
                0x0000000008017446       0x1e /home/konata/devel/libopencm3/lib/libopencm3_stm32f4.a(dma_common_f24.o)
                0x0000000008017446                dma_enable_transfer_error_interrupt
 .text.dma_disable_transfer_error_interrupt
                0x0000000008017464       0x12 /home/konata/devel/libopencm3/lib/libopencm3_stm32f4.a(dma_common_f24.o)
                0x0000000008017464                dma_disable_transfer_error_interrupt
 .text.dma_enable_half_transfer_interrupt
                0x0000000008017476       0x1e /home/konata/devel/libopencm3/lib/libopencm3_stm32f4.a(dma_common_f24.o)
                0x0000000008017476                dma_enable_half_transfer_interrupt
 .text.dma_disable_half_transfer_interrupt
                0x0000000008017494       0x12 /home/konata/devel/libopencm3/lib/libopencm3_stm32f4.a(dma_common_f24.o)
                0x0000000008017494                dma_disable_half_transfer_interrupt
 .text.dma_enable_transfer_complete_interrupt
                0x00000000080174a6       0x1e /home/konata/devel/libopencm3/lib/libopencm3_stm32f4.a(dma_common_f24.o)
                0x00000000080174a6                dma_enable_transfer_complete_interrupt
 .text.dma_disable_transfer_complete_interrupt
                0x00000000080174c4       0x12 /home/konata/devel/libopencm3/lib/libopencm3_stm32f4.a(dma_common_f24.o)
                0x00000000080174c4                dma_disable_transfer_complete_interrupt
 .text.dma_enable_direct_mode_error_interrupt
                0x00000000080174d6       0x1e /home/konata/devel/libopencm3/lib/libopencm3_stm32f4.a(dma_common_f24.o)
                0x00000000080174d6                dma_enable_direct_mode_error_interrupt
 .text.dma_disable_direct_mode_error_interrupt
                0x00000000080174f4       0x12 /home/konata/devel/libopencm3/lib/libopencm3_stm32f4.a(dma_common_f24.o)
                0x00000000080174f4                dma_disable_direct_mode_error_interrupt
 .text.dma_enable_fifo_error_interrupt
                0x0000000008017506       0x1e /home/konata/devel/libopencm3/lib/libopencm3_stm32f4.a(dma_common_f24.o)
                0x0000000008017506                dma_enable_fifo_error_interrupt
 .text.dma_disable_fifo_error_interrupt
                0x0000000008017524       0x12 /home/konata/devel/libopencm3/lib/libopencm3_stm32f4.a(dma_common_f24.o)
                0x0000000008017524                dma_disable_fifo_error_interrupt
 .text.dma_fifo_status
                0x0000000008017536       0x10 /home/konata/devel/libopencm3/lib/libopencm3_stm32f4.a(dma_common_f24.o)
                0x0000000008017536                dma_fifo_status
 .text.dma_enable_direct_mode
                0x0000000008017546       0x12 /home/konata/devel/libopencm3/lib/libopencm3_stm32f4.a(dma_common_f24.o)
                0x0000000008017546                dma_enable_direct_mode
 .text.dma_enable_fifo_mode
                0x0000000008017558       0x12 /home/konata/devel/libopencm3/lib/libopencm3_stm32f4.a(dma_common_f24.o)
                0x0000000008017558                dma_enable_fifo_mode
 .text.dma_set_fifo_threshold
                0x000000000801756a       0x14 /home/konata/devel/libopencm3/lib/libopencm3_stm32f4.a(dma_common_f24.o)
                0x000000000801756a                dma_set_fifo_threshold
 .text.dma_enable_stream
                0x000000000801757e       0x12 /home/konata/devel/libopencm3/lib/libopencm3_stm32f4.a(dma_common_f24.o)
                0x000000000801757e                dma_enable_stream
 .text.dma_disable_stream
                0x0000000008017590       0x12 /home/konata/devel/libopencm3/lib/libopencm3_stm32f4.a(dma_common_f24.o)
                0x0000000008017590                dma_disable_stream
 .text.dma_set_peripheral_address
                0x00000000080175a2       0x10 /home/konata/devel/libopencm3/lib/libopencm3_stm32f4.a(dma_common_f24.o)
                0x00000000080175a2                dma_set_peripheral_address
 .text.dma_set_memory_address
                0x00000000080175b2       0x1a /home/konata/devel/libopencm3/lib/libopencm3_stm32f4.a(dma_common_f24.o)
                0x00000000080175b2                dma_set_memory_address
 .text.dma_set_memory_address_1
                0x00000000080175cc       0x1a /home/konata/devel/libopencm3/lib/libopencm3_stm32f4.a(dma_common_f24.o)
                0x00000000080175cc                dma_set_memory_address_1
 .text.dma_set_number_of_data
                0x00000000080175e6        0xc /home/konata/devel/libopencm3/lib/libopencm3_stm32f4.a(dma_common_f24.o)
                0x00000000080175e6                dma_set_number_of_data
 .text          0x00000000080175f2        0x0 /home/konata/devel/libopencm3/lib/libopencm3_stm32f4.a(gpio_common_all.o)
 .text.gpio_set
                0x00000000080175f2        0x4 /home/konata/devel/libopencm3/lib/libopencm3_stm32f4.a(gpio_common_all.o)
                0x00000000080175f2                gpio_set
 .text.gpio_clear
                0x00000000080175f6        0x6 /home/konata/devel/libopencm3/lib/libopencm3_stm32f4.a(gpio_common_all.o)
                0x00000000080175f6                gpio_clear
 .text.gpio_get
                0x00000000080175fc        0x6 /home/konata/devel/libopencm3/lib/libopencm3_stm32f4.a(gpio_common_all.o)
                0x00000000080175fc                gpio_get
 .text.gpio_toggle
                0x0000000008017602       0x12 /home/konata/devel/libopencm3/lib/libopencm3_stm32f4.a(gpio_common_all.o)
                0x0000000008017602                gpio_toggle
 .text.gpio_port_read
                0x0000000008017614        0x6 /home/konata/devel/libopencm3/lib/libopencm3_stm32f4.a(gpio_common_all.o)
                0x0000000008017614                gpio_port_read
 .text.gpio_port_write
                0x000000000801761a        0x4 /home/konata/devel/libopencm3/lib/libopencm3_stm32f4.a(gpio_common_all.o)
                0x000000000801761a                gpio_port_write
 .text.gpio_port_config_lock
                0x000000000801761e       0x10 /home/konata/devel/libopencm3/lib/libopencm3_stm32f4.a(gpio_common_all.o)
                0x000000000801761e                gpio_port_config_lock
 .text          0x000000000801762e        0x0 /home/konata/devel/libopencm3/lib/libopencm3_stm32f4.a(gpio_common_f0234.o)
 .text.gpio_mode_setup
                0x000000000801762e       0x44 /home/konata/devel/libopencm3/lib/libopencm3_stm32f4.a(gpio_common_f0234.o)
                0x000000000801762e                gpio_mode_setup
 .text.gpio_set_output_options
                0x0000000008017672       0x36 /home/konata/devel/libopencm3/lib/libopencm3_stm32f4.a(gpio_common_f0234.o)
                0x0000000008017672                gpio_set_output_options
 .text.gpio_set_af
                0x00000000080176a8       0x58 /home/konata/devel/libopencm3/lib/libopencm3_stm32f4.a(gpio_common_f0234.o)
                0x00000000080176a8                gpio_set_af
 .text          0x0000000008017700        0x0 /home/konata/devel/libopencm3/lib/libopencm3_stm32f4.a(i2c_common_v1.o)
 .text.i2c_reset
                0x0000000008017700       0x30 /home/konata/devel/libopencm3/lib/libopencm3_stm32f4.a(i2c_common_v1.o)
                0x0000000008017700                i2c_reset
 .text.i2c_peripheral_enable
                0x0000000008017730        0xa /home/konata/devel/libopencm3/lib/libopencm3_stm32f4.a(i2c_common_v1.o)
                0x0000000008017730                i2c_peripheral_enable
 .text.i2c_peripheral_disable
                0x000000000801773a        0xa /home/konata/devel/libopencm3/lib/libopencm3_stm32f4.a(i2c_common_v1.o)
                0x000000000801773a                i2c_peripheral_disable
 .text.i2c_send_start
                0x0000000008017744        0xa /home/konata/devel/libopencm3/lib/libopencm3_stm32f4.a(i2c_common_v1.o)
                0x0000000008017744                i2c_send_start
 .text.i2c_send_stop
                0x000000000801774e        0xa /home/konata/devel/libopencm3/lib/libopencm3_stm32f4.a(i2c_common_v1.o)
                0x000000000801774e                i2c_send_stop
 .text.i2c_clear_stop
                0x0000000008017758        0xa /home/konata/devel/libopencm3/lib/libopencm3_stm32f4.a(i2c_common_v1.o)
                0x0000000008017758                i2c_clear_stop
 .text.i2c_set_own_7bit_slave_address
                0x0000000008017762        0xa /home/konata/devel/libopencm3/lib/libopencm3_stm32f4.a(i2c_common_v1.o)
                0x0000000008017762                i2c_set_own_7bit_slave_address
 .text.i2c_set_own_10bit_slave_address
                0x000000000801776c        0x8 /home/konata/devel/libopencm3/lib/libopencm3_stm32f4.a(i2c_common_v1.o)
                0x000000000801776c                i2c_set_own_10bit_slave_address
 .text.i2c_set_own_7bit_slave_address_two
                0x0000000008017774        0x6 /home/konata/devel/libopencm3/lib/libopencm3_stm32f4.a(i2c_common_v1.o)
                0x0000000008017774                i2c_set_own_7bit_slave_address_two
 .text.i2c_enable_dual_addressing_mode
                0x000000000801777a        0xa /home/konata/devel/libopencm3/lib/libopencm3_stm32f4.a(i2c_common_v1.o)
                0x000000000801777a                i2c_enable_dual_addressing_mode
 .text.i2c_disable_dual_addressing_mode
                0x0000000008017784        0xa /home/konata/devel/libopencm3/lib/libopencm3_stm32f4.a(i2c_common_v1.o)
                0x0000000008017784                i2c_disable_dual_addressing_mode
 .text.i2c_set_clock_frequency
                0x000000000801778e        0xe /home/konata/devel/libopencm3/lib/libopencm3_stm32f4.a(i2c_common_v1.o)
                0x000000000801778e                i2c_set_clock_frequency
 .text.i2c_send_data
                0x000000000801779c        0x4 /home/konata/devel/libopencm3/lib/libopencm3_stm32f4.a(i2c_common_v1.o)
                0x000000000801779c                i2c_send_data
 .text.i2c_set_fast_mode
                0x00000000080177a0        0xa /home/konata/devel/libopencm3/lib/libopencm3_stm32f4.a(i2c_common_v1.o)
                0x00000000080177a0                i2c_set_fast_mode
 .text.i2c_set_standard_mode
                0x00000000080177aa        0xa /home/konata/devel/libopencm3/lib/libopencm3_stm32f4.a(i2c_common_v1.o)
                0x00000000080177aa                i2c_set_standard_mode
 .text.i2c_set_ccr
                0x00000000080177b4        0xc /home/konata/devel/libopencm3/lib/libopencm3_stm32f4.a(i2c_common_v1.o)
                0x00000000080177b4                i2c_set_ccr
 .text.i2c_set_trise
                0x00000000080177c0        0x4 /home/konata/devel/libopencm3/lib/libopencm3_stm32f4.a(i2c_common_v1.o)
                0x00000000080177c0                i2c_set_trise
 .text.i2c_send_7bit_address
                0x00000000080177c4        0xa /home/konata/devel/libopencm3/lib/libopencm3_stm32f4.a(i2c_common_v1.o)
                0x00000000080177c4                i2c_send_7bit_address
 .text.i2c_get_data
                0x00000000080177ce        0x6 /home/konata/devel/libopencm3/lib/libopencm3_stm32f4.a(i2c_common_v1.o)
                0x00000000080177ce                i2c_get_data
 .text.i2c_enable_interrupt
                0x00000000080177d4        0x8 /home/konata/devel/libopencm3/lib/libopencm3_stm32f4.a(i2c_common_v1.o)
                0x00000000080177d4                i2c_enable_interrupt
 .text.i2c_disable_interrupt
                0x00000000080177dc        0xa /home/konata/devel/libopencm3/lib/libopencm3_stm32f4.a(i2c_common_v1.o)
                0x00000000080177dc                i2c_disable_interrupt
 .text.i2c_enable_ack
                0x00000000080177e6        0xa /home/konata/devel/libopencm3/lib/libopencm3_stm32f4.a(i2c_common_v1.o)
                0x00000000080177e6                i2c_enable_ack
 .text.i2c_disable_ack
                0x00000000080177f0        0xa /home/konata/devel/libopencm3/lib/libopencm3_stm32f4.a(i2c_common_v1.o)
                0x00000000080177f0                i2c_disable_ack
 .text.i2c_nack_next
                0x00000000080177fa        0xa /home/konata/devel/libopencm3/lib/libopencm3_stm32f4.a(i2c_common_v1.o)
                0x00000000080177fa                i2c_nack_next
 .text.i2c_nack_current
                0x0000000008017804        0xa /home/konata/devel/libopencm3/lib/libopencm3_stm32f4.a(i2c_common_v1.o)
                0x0000000008017804                i2c_nack_current
 .text.i2c_set_dutycycle
                0x000000000801780e       0x12 /home/konata/devel/libopencm3/lib/libopencm3_stm32f4.a(i2c_common_v1.o)
                0x000000000801780e                i2c_set_dutycycle
 .text.i2c_enable_dma
                0x0000000008017820        0xa /home/konata/devel/libopencm3/lib/libopencm3_stm32f4.a(i2c_common_v1.o)
                0x0000000008017820                i2c_enable_dma
 .text.i2c_disable_dma
                0x000000000801782a        0xa /home/konata/devel/libopencm3/lib/libopencm3_stm32f4.a(i2c_common_v1.o)
                0x000000000801782a                i2c_disable_dma
 .text.i2c_set_dma_last_transfer
                0x0000000008017834        0xa /home/konata/devel/libopencm3/lib/libopencm3_stm32f4.a(i2c_common_v1.o)
                0x0000000008017834                i2c_set_dma_last_transfer
 .text.i2c_clear_dma_last_transfer
                0x000000000801783e        0xa /home/konata/devel/libopencm3/lib/libopencm3_stm32f4.a(i2c_common_v1.o)
                0x000000000801783e                i2c_clear_dma_last_transfer
 .text.i2c_transfer7
                0x0000000008017848       0xc2 /home/konata/devel/libopencm3/lib/libopencm3_stm32f4.a(i2c_common_v1.o)
                0x0000000008017848                i2c_transfer7
 .text          0x000000000801790a        0x0 /home/konata/devel/libopencm3/lib/libopencm3_stm32f4.a(spi_common_all.o)
 *fill*         0x000000000801790a        0x2 
 .text.spi_reset
                0x000000000801790c       0x60 /home/konata/devel/libopencm3/lib/libopencm3_stm32f4.a(spi_common_all.o)
                0x000000000801790c                spi_reset
 .text.spi_enable
                0x000000000801796c        0xa /home/konata/devel/libopencm3/lib/libopencm3_stm32f4.a(spi_common_all.o)
                0x000000000801796c                spi_enable
 .text.spi_disable
                0x0000000008017976        0xa /home/konata/devel/libopencm3/lib/libopencm3_stm32f4.a(spi_common_all.o)
                0x0000000008017976                spi_disable
 .text.spi_clean_disable
                0x0000000008017980       0x26 /home/konata/devel/libopencm3/lib/libopencm3_stm32f4.a(spi_common_all.o)
                0x0000000008017980                spi_clean_disable
 .text.spi_write
                0x00000000080179a6        0x4 /home/konata/devel/libopencm3/lib/libopencm3_stm32f4.a(spi_common_all.o)
                0x00000000080179a6                spi_write
 .text.spi_send
                0x00000000080179aa        0xa /home/konata/devel/libopencm3/lib/libopencm3_stm32f4.a(spi_common_all.o)
                0x00000000080179aa                spi_send
 .text.spi_read
                0x00000000080179b4        0xc /home/konata/devel/libopencm3/lib/libopencm3_stm32f4.a(spi_common_all.o)
                0x00000000080179b4                spi_read
 .text.spi_xfer
                0x00000000080179c0        0xe /home/konata/devel/libopencm3/lib/libopencm3_stm32f4.a(spi_common_all.o)
                0x00000000080179c0                spi_xfer
 .text.spi_set_bidirectional_mode
                0x00000000080179ce        0xa /home/konata/devel/libopencm3/lib/libopencm3_stm32f4.a(spi_common_all.o)
                0x00000000080179ce                spi_set_bidirectional_mode
 .text.spi_set_unidirectional_mode
                0x00000000080179d8        0xa /home/konata/devel/libopencm3/lib/libopencm3_stm32f4.a(spi_common_all.o)
                0x00000000080179d8                spi_set_unidirectional_mode
 .text.spi_set_bidirectional_receive_only_mode
                0x00000000080179e2       0x12 /home/konata/devel/libopencm3/lib/libopencm3_stm32f4.a(spi_common_all.o)
                0x00000000080179e2                spi_set_bidirectional_receive_only_mode
 .text.spi_set_bidirectional_transmit_only_mode
                0x00000000080179f4       0x12 /home/konata/devel/libopencm3/lib/libopencm3_stm32f4.a(spi_common_all.o)
                0x00000000080179f4                spi_set_bidirectional_transmit_only_mode
 .text.spi_enable_crc
                0x0000000008017a06        0xa /home/konata/devel/libopencm3/lib/libopencm3_stm32f4.a(spi_common_all.o)
                0x0000000008017a06                spi_enable_crc
 .text.spi_disable_crc
                0x0000000008017a10        0xa /home/konata/devel/libopencm3/lib/libopencm3_stm32f4.a(spi_common_all.o)
                0x0000000008017a10                spi_disable_crc
 .text.spi_set_next_tx_from_buffer
                0x0000000008017a1a        0xa /home/konata/devel/libopencm3/lib/libopencm3_stm32f4.a(spi_common_all.o)
                0x0000000008017a1a                spi_set_next_tx_from_buffer
 .text.spi_set_next_tx_from_crc
                0x0000000008017a24        0xa /home/konata/devel/libopencm3/lib/libopencm3_stm32f4.a(spi_common_all.o)
                0x0000000008017a24                spi_set_next_tx_from_crc
 .text.spi_set_full_duplex_mode
                0x0000000008017a2e        0xa /home/konata/devel/libopencm3/lib/libopencm3_stm32f4.a(spi_common_all.o)
                0x0000000008017a2e                spi_set_full_duplex_mode
 .text.spi_set_receive_only_mode
                0x0000000008017a38        0xa /home/konata/devel/libopencm3/lib/libopencm3_stm32f4.a(spi_common_all.o)
                0x0000000008017a38                spi_set_receive_only_mode
 .text.spi_disable_software_slave_management
                0x0000000008017a42        0xa /home/konata/devel/libopencm3/lib/libopencm3_stm32f4.a(spi_common_all.o)
                0x0000000008017a42                spi_disable_software_slave_management
 .text.spi_enable_software_slave_management
                0x0000000008017a4c       0x12 /home/konata/devel/libopencm3/lib/libopencm3_stm32f4.a(spi_common_all.o)
                0x0000000008017a4c                spi_enable_software_slave_management
 .text.spi_set_nss_high
                0x0000000008017a5e        0xa /home/konata/devel/libopencm3/lib/libopencm3_stm32f4.a(spi_common_all.o)
                0x0000000008017a5e                spi_set_nss_high
 .text.spi_set_nss_low
                0x0000000008017a68        0xa /home/konata/devel/libopencm3/lib/libopencm3_stm32f4.a(spi_common_all.o)
                0x0000000008017a68                spi_set_nss_low
 .text.spi_send_lsb_first
                0x0000000008017a72        0xa /home/konata/devel/libopencm3/lib/libopencm3_stm32f4.a(spi_common_all.o)
                0x0000000008017a72                spi_send_lsb_first
 .text.spi_send_msb_first
                0x0000000008017a7c        0xa /home/konata/devel/libopencm3/lib/libopencm3_stm32f4.a(spi_common_all.o)
                0x0000000008017a7c                spi_send_msb_first
 .text.spi_set_baudrate_prescaler
                0x0000000008017a86       0x14 /home/konata/devel/libopencm3/lib/libopencm3_stm32f4.a(spi_common_all.o)
                0x0000000008017a86                spi_set_baudrate_prescaler
 .text.spi_set_master_mode
                0x0000000008017a9a        0xa /home/konata/devel/libopencm3/lib/libopencm3_stm32f4.a(spi_common_all.o)
                0x0000000008017a9a                spi_set_master_mode
 .text.spi_set_slave_mode
                0x0000000008017aa4        0xa /home/konata/devel/libopencm3/lib/libopencm3_stm32f4.a(spi_common_all.o)
                0x0000000008017aa4                spi_set_slave_mode
 .text.spi_set_clock_polarity_1
                0x0000000008017aae        0xa /home/konata/devel/libopencm3/lib/libopencm3_stm32f4.a(spi_common_all.o)
                0x0000000008017aae                spi_set_clock_polarity_1
 .text.spi_set_clock_polarity_0
                0x0000000008017ab8        0xa /home/konata/devel/libopencm3/lib/libopencm3_stm32f4.a(spi_common_all.o)
                0x0000000008017ab8                spi_set_clock_polarity_0
 .text.spi_set_clock_phase_1
                0x0000000008017ac2        0xa /home/konata/devel/libopencm3/lib/libopencm3_stm32f4.a(spi_common_all.o)
                0x0000000008017ac2                spi_set_clock_phase_1
 .text.spi_set_clock_phase_0
                0x0000000008017acc        0xa /home/konata/devel/libopencm3/lib/libopencm3_stm32f4.a(spi_common_all.o)
                0x0000000008017acc                spi_set_clock_phase_0
 .text.spi_enable_tx_buffer_empty_interrupt
                0x0000000008017ad6        0xa /home/konata/devel/libopencm3/lib/libopencm3_stm32f4.a(spi_common_all.o)
                0x0000000008017ad6                spi_enable_tx_buffer_empty_interrupt
 .text.spi_disable_tx_buffer_empty_interrupt
                0x0000000008017ae0        0xa /home/konata/devel/libopencm3/lib/libopencm3_stm32f4.a(spi_common_all.o)
                0x0000000008017ae0                spi_disable_tx_buffer_empty_interrupt
 .text.spi_enable_rx_buffer_not_empty_interrupt
                0x0000000008017aea        0xa /home/konata/devel/libopencm3/lib/libopencm3_stm32f4.a(spi_common_all.o)
                0x0000000008017aea                spi_enable_rx_buffer_not_empty_interrupt
 .text.spi_disable_rx_buffer_not_empty_interrupt
                0x0000000008017af4        0xa /home/konata/devel/libopencm3/lib/libopencm3_stm32f4.a(spi_common_all.o)
                0x0000000008017af4                spi_disable_rx_buffer_not_empty_interrupt
 .text.spi_enable_error_interrupt
                0x0000000008017afe        0xa /home/konata/devel/libopencm3/lib/libopencm3_stm32f4.a(spi_common_all.o)
                0x0000000008017afe                spi_enable_error_interrupt
 .text.spi_disable_error_interrupt
                0x0000000008017b08        0xa /home/konata/devel/libopencm3/lib/libopencm3_stm32f4.a(spi_common_all.o)
                0x0000000008017b08                spi_disable_error_interrupt
 .text.spi_enable_ss_output
                0x0000000008017b12        0xa /home/konata/devel/libopencm3/lib/libopencm3_stm32f4.a(spi_common_all.o)
                0x0000000008017b12                spi_enable_ss_output
 .text.spi_disable_ss_output
                0x0000000008017b1c        0xa /home/konata/devel/libopencm3/lib/libopencm3_stm32f4.a(spi_common_all.o)
                0x0000000008017b1c                spi_disable_ss_output
 .text.spi_enable_tx_dma
                0x0000000008017b26        0xa /home/konata/devel/libopencm3/lib/libopencm3_stm32f4.a(spi_common_all.o)
                0x0000000008017b26                spi_enable_tx_dma
 .text.spi_disable_tx_dma
                0x0000000008017b30        0xa /home/konata/devel/libopencm3/lib/libopencm3_stm32f4.a(spi_common_all.o)
                0x0000000008017b30                spi_disable_tx_dma
 .text.spi_enable_rx_dma
                0x0000000008017b3a        0xa /home/konata/devel/libopencm3/lib/libopencm3_stm32f4.a(spi_common_all.o)
                0x0000000008017b3a                spi_enable_rx_dma
 .text.spi_disable_rx_dma
                0x0000000008017b44        0xa /home/konata/devel/libopencm3/lib/libopencm3_stm32f4.a(spi_common_all.o)
                0x0000000008017b44                spi_disable_rx_dma
 .text.spi_set_standard_mode
                0x0000000008017b4e       0x10 /home/konata/devel/libopencm3/lib/libopencm3_stm32f4.a(spi_common_all.o)
                0x0000000008017b4e                spi_set_standard_mode
 .text          0x0000000008017b5e        0x0 /home/konata/devel/libopencm3/lib/libopencm3_stm32f4.a(spi_common_l1f124.o)
 .text.spi_init_master
                0x0000000008017b5e       0x2a /home/konata/devel/libopencm3/lib/libopencm3_stm32f4.a(spi_common_l1f124.o)
                0x0000000008017b5e                spi_init_master
 .text.spi_set_dff_8bit
                0x0000000008017b88        0xa /home/konata/devel/libopencm3/lib/libopencm3_stm32f4.a(spi_common_l1f124.o)
                0x0000000008017b88                spi_set_dff_8bit
 .text.spi_set_dff_16bit
                0x0000000008017b92        0xa /home/konata/devel/libopencm3/lib/libopencm3_stm32f4.a(spi_common_l1f124.o)
                0x0000000008017b92                spi_set_dff_16bit
 .text          0x0000000008017b9c        0x0 /home/konata/devel/libopencm3/lib/libopencm3_stm32f4.a(usart_common_all.o)
 .text.usart_set_baudrate
                0x0000000008017b9c       0x30 /home/konata/devel/libopencm3/lib/libopencm3_stm32f4.a(usart_common_all.o)
                0x0000000008017b9c                usart_set_baudrate
 .text.usart_set_databits
                0x0000000008017bcc       0x12 /home/konata/devel/libopencm3/lib/libopencm3_stm32f4.a(usart_common_all.o)
                0x0000000008017bcc                usart_set_databits
 .text.usart_set_stopbits
                0x0000000008017bde        0xc /home/konata/devel/libopencm3/lib/libopencm3_stm32f4.a(usart_common_all.o)
                0x0000000008017bde                usart_set_stopbits
 .text.usart_set_parity
                0x0000000008017bea        0xc /home/konata/devel/libopencm3/lib/libopencm3_stm32f4.a(usart_common_all.o)
                0x0000000008017bea                usart_set_parity
 .text.usart_set_mode
                0x0000000008017bf6        0xc /home/konata/devel/libopencm3/lib/libopencm3_stm32f4.a(usart_common_all.o)
                0x0000000008017bf6                usart_set_mode
 .text.usart_set_flow_control
                0x0000000008017c02        0xc /home/konata/devel/libopencm3/lib/libopencm3_stm32f4.a(usart_common_all.o)
                0x0000000008017c02                usart_set_flow_control
 .text.usart_enable
                0x0000000008017c0e        0xa /home/konata/devel/libopencm3/lib/libopencm3_stm32f4.a(usart_common_all.o)
                0x0000000008017c0e                usart_enable
 .text.usart_disable
                0x0000000008017c18        0xa /home/konata/devel/libopencm3/lib/libopencm3_stm32f4.a(usart_common_all.o)
                0x0000000008017c18                usart_disable
 .text.usart_send_blocking
                0x0000000008017c22       0x16 /home/konata/devel/libopencm3/lib/libopencm3_stm32f4.a(usart_common_all.o)
                0x0000000008017c22                usart_send_blocking
 .text.usart_recv_blocking
                0x0000000008017c38       0x12 /home/konata/devel/libopencm3/lib/libopencm3_stm32f4.a(usart_common_all.o)
                0x0000000008017c38                usart_recv_blocking
 .text.usart_enable_rx_dma
                0x0000000008017c4a        0xa /home/konata/devel/libopencm3/lib/libopencm3_stm32f4.a(usart_common_all.o)
                0x0000000008017c4a                usart_enable_rx_dma
 .text.usart_disable_rx_dma
                0x0000000008017c54        0xa /home/konata/devel/libopencm3/lib/libopencm3_stm32f4.a(usart_common_all.o)
                0x0000000008017c54                usart_disable_rx_dma
 .text.usart_enable_tx_dma
                0x0000000008017c5e        0xa /home/konata/devel/libopencm3/lib/libopencm3_stm32f4.a(usart_common_all.o)
                0x0000000008017c5e                usart_enable_tx_dma
 .text.usart_disable_tx_dma
                0x0000000008017c68        0xa /home/konata/devel/libopencm3/lib/libopencm3_stm32f4.a(usart_common_all.o)
                0x0000000008017c68                usart_disable_tx_dma
 .text.usart_enable_rx_interrupt
                0x0000000008017c72        0xa /home/konata/devel/libopencm3/lib/libopencm3_stm32f4.a(usart_common_all.o)
                0x0000000008017c72                usart_enable_rx_interrupt
 .text.usart_disable_rx_interrupt
                0x0000000008017c7c        0xa /home/konata/devel/libopencm3/lib/libopencm3_stm32f4.a(usart_common_all.o)
                0x0000000008017c7c                usart_disable_rx_interrupt
 .text.usart_enable_tx_interrupt
                0x0000000008017c86        0xa /home/konata/devel/libopencm3/lib/libopencm3_stm32f4.a(usart_common_all.o)
                0x0000000008017c86                usart_enable_tx_interrupt
 .text.usart_disable_tx_interrupt
                0x0000000008017c90        0xa /home/konata/devel/libopencm3/lib/libopencm3_stm32f4.a(usart_common_all.o)
                0x0000000008017c90                usart_disable_tx_interrupt
 .text.usart_enable_error_interrupt
                0x0000000008017c9a        0xa /home/konata/devel/libopencm3/lib/libopencm3_stm32f4.a(usart_common_all.o)
                0x0000000008017c9a                usart_enable_error_interrupt
 .text.usart_disable_error_interrupt
                0x0000000008017ca4        0xa /home/konata/devel/libopencm3/lib/libopencm3_stm32f4.a(usart_common_all.o)
                0x0000000008017ca4                usart_disable_error_interrupt
 .text          0x0000000008017cae        0x0 /home/konata/devel/libopencm3/lib/libopencm3_stm32f4.a(usart_common_f124.o)
 .text.usart_send
                0x0000000008017cae        0x8 /home/konata/devel/libopencm3/lib/libopencm3_stm32f4.a(usart_common_f124.o)
                0x0000000008017cae                usart_send
 .text.usart_recv
                0x0000000008017cb6        0x8 /home/konata/devel/libopencm3/lib/libopencm3_stm32f4.a(usart_common_f124.o)
                0x0000000008017cb6                usart_recv
 .text.usart_wait_send_ready
                0x0000000008017cbe        0x8 /home/konata/devel/libopencm3/lib/libopencm3_stm32f4.a(usart_common_f124.o)
                0x0000000008017cbe                usart_wait_send_ready
 .text.usart_wait_recv_ready
                0x0000000008017cc6        0x8 /home/konata/devel/libopencm3/lib/libopencm3_stm32f4.a(usart_common_f124.o)
                0x0000000008017cc6                usart_wait_recv_ready
 .text.usart_get_flag
                0x0000000008017cce        0xc /home/konata/devel/libopencm3/lib/libopencm3_stm32f4.a(usart_common_f124.o)
                0x0000000008017cce                usart_get_flag
 .text          0x0000000008017cda        0x0 /home/konata/devel/libopencm3/lib/libopencm3_stm32f4.a(flash_common_f234.o)
 *fill*         0x0000000008017cda        0x2 
 .text.flash_set_ws
                0x0000000008017cdc       0x14 /home/konata/devel/libopencm3/lib/libopencm3_stm32f4.a(flash_common_f234.o)
                0x0000000008017cdc                flash_set_ws
 .text.flash_unlock
                0x0000000008017cf0       0x24 /home/konata/devel/libopencm3/lib/libopencm3_stm32f4.a(flash_common_f234.o)
                0x0000000008017cf0                flash_unlock
 .text.flash_lock
                0x0000000008017d14       0x10 /home/konata/devel/libopencm3/lib/libopencm3_stm32f4.a(flash_common_f234.o)
                0x0000000008017d14                flash_lock
 .text.flash_clear_pgperr_flag
                0x0000000008017d24       0x10 /home/konata/devel/libopencm3/lib/libopencm3_stm32f4.a(flash_common_f234.o)
                0x0000000008017d24                flash_clear_pgperr_flag
 .text.flash_clear_eop_flag
                0x0000000008017d34       0x10 /home/konata/devel/libopencm3/lib/libopencm3_stm32f4.a(flash_common_f234.o)
                0x0000000008017d34                flash_clear_eop_flag
 .text.flash_clear_bsy_flag
                0x0000000008017d44       0x10 /home/konata/devel/libopencm3/lib/libopencm3_stm32f4.a(flash_common_f234.o)
                0x0000000008017d44                flash_clear_bsy_flag
 .text.flash_wait_for_last_operation
                0x0000000008017d54       0x10 /home/konata/devel/libopencm3/lib/libopencm3_stm32f4.a(flash_common_f234.o)
                0x0000000008017d54                flash_wait_for_last_operation
 .text          0x0000000008017d64        0x0 /home/konata/devel/libopencm3/lib/libopencm3_stm32f4.a(flash_common_f24.o)
 .text.flash_set_program_size
                0x0000000008017d64       0x18 /home/konata/devel/libopencm3/lib/libopencm3_stm32f4.a(flash_common_f24.o)
 .text.flash_dcache_enable
                0x0000000008017d7c       0x10 /home/konata/devel/libopencm3/lib/libopencm3_stm32f4.a(flash_common_f24.o)
                0x0000000008017d7c                flash_dcache_enable
 .text.flash_dcache_disable
                0x0000000008017d8c       0x10 /home/konata/devel/libopencm3/lib/libopencm3_stm32f4.a(flash_common_f24.o)
                0x0000000008017d8c                flash_dcache_disable
 .text.flash_icache_enable
                0x0000000008017d9c       0x10 /home/konata/devel/libopencm3/lib/libopencm3_stm32f4.a(flash_common_f24.o)
                0x0000000008017d9c                flash_icache_enable
 .text.flash_icache_disable
                0x0000000008017dac       0x10 /home/konata/devel/libopencm3/lib/libopencm3_stm32f4.a(flash_common_f24.o)
                0x0000000008017dac                flash_icache_disable
 .text.flash_prefetch_enable
                0x0000000008017dbc       0x10 /home/konata/devel/libopencm3/lib/libopencm3_stm32f4.a(flash_common_f24.o)
                0x0000000008017dbc                flash_prefetch_enable
 .text.flash_prefetch_disable
                0x0000000008017dcc       0x10 /home/konata/devel/libopencm3/lib/libopencm3_stm32f4.a(flash_common_f24.o)
                0x0000000008017dcc                flash_prefetch_disable
 .text.flash_dcache_reset
                0x0000000008017ddc       0x10 /home/konata/devel/libopencm3/lib/libopencm3_stm32f4.a(flash_common_f24.o)
                0x0000000008017ddc                flash_dcache_reset
 .text.flash_icache_reset
                0x0000000008017dec       0x10 /home/konata/devel/libopencm3/lib/libopencm3_stm32f4.a(flash_common_f24.o)
                0x0000000008017dec                flash_icache_reset
 .text.flash_clear_pgserr_flag
                0x0000000008017dfc       0x10 /home/konata/devel/libopencm3/lib/libopencm3_stm32f4.a(flash_common_f24.o)
                0x0000000008017dfc                flash_clear_pgserr_flag
 .text.flash_clear_pgaerr_flag
                0x0000000008017e0c       0x10 /home/konata/devel/libopencm3/lib/libopencm3_stm32f4.a(flash_common_f24.o)
                0x0000000008017e0c                flash_clear_pgaerr_flag
 .text.flash_clear_wrperr_flag
                0x0000000008017e1c       0x10 /home/konata/devel/libopencm3/lib/libopencm3_stm32f4.a(flash_common_f24.o)
                0x0000000008017e1c                flash_clear_wrperr_flag
 .text.flash_clear_status_flags
                0x0000000008017e2c       0x1e /home/konata/devel/libopencm3/lib/libopencm3_stm32f4.a(flash_common_f24.o)
                0x0000000008017e2c                flash_clear_status_flags
 *fill*         0x0000000008017e4a        0x2 
 .text.flash_unlock_option_bytes
                0x0000000008017e4c       0x24 /home/konata/devel/libopencm3/lib/libopencm3_stm32f4.a(flash_common_f24.o)
                0x0000000008017e4c                flash_unlock_option_bytes
 .text.flash_lock_option_bytes
                0x0000000008017e70       0x10 /home/konata/devel/libopencm3/lib/libopencm3_stm32f4.a(flash_common_f24.o)
                0x0000000008017e70                flash_lock_option_bytes
 .text.flash_program_double_word
                0x0000000008017e80       0x34 /home/konata/devel/libopencm3/lib/libopencm3_stm32f4.a(flash_common_f24.o)
                0x0000000008017e80                flash_program_double_word
 .text.flash_program_word
                0x0000000008017eb4       0x30 /home/konata/devel/libopencm3/lib/libopencm3_stm32f4.a(flash_common_f24.o)
                0x0000000008017eb4                flash_program_word
 .text.flash_program_half_word
                0x0000000008017ee4       0x30 /home/konata/devel/libopencm3/lib/libopencm3_stm32f4.a(flash_common_f24.o)
                0x0000000008017ee4                flash_program_half_word
 .text.flash_program_byte
                0x0000000008017f14       0x30 /home/konata/devel/libopencm3/lib/libopencm3_stm32f4.a(flash_common_f24.o)
                0x0000000008017f14                flash_program_byte
 .text.flash_program
                0x0000000008017f44       0x1a /home/konata/devel/libopencm3/lib/libopencm3_stm32f4.a(flash_common_f24.o)
                0x0000000008017f44                flash_program
 *fill*         0x0000000008017f5e        0x2 
 .text.flash_erase_sector
                0x0000000008017f60       0x50 /home/konata/devel/libopencm3/lib/libopencm3_stm32f4.a(flash_common_f24.o)
                0x0000000008017f60                flash_erase_sector
 .text.flash_erase_all_sectors
                0x0000000008017fb0       0x34 /home/konata/devel/libopencm3/lib/libopencm3_stm32f4.a(flash_common_f24.o)
                0x0000000008017fb0                flash_erase_all_sectors
 .text.flash_program_option_bytes
                0x0000000008017fe4       0x30 /home/konata/devel/libopencm3/lib/libopencm3_stm32f4.a(flash_common_f24.o)
                0x0000000008017fe4                flash_program_option_bytes
 .text          0x0000000008018014        0x0 /home/konata/devel/libopencm3/lib/libopencm3_stm32f4.a(exti_common_all.o)
 .text.exti_set_trigger
                0x0000000008018014       0x3c /home/konata/devel/libopencm3/lib/libopencm3_stm32f4.a(exti_common_all.o)
                0x0000000008018014                exti_set_trigger
 .text.exti_enable_request
                0x0000000008018050       0x14 /home/konata/devel/libopencm3/lib/libopencm3_stm32f4.a(exti_common_all.o)
                0x0000000008018050                exti_enable_request
 .text.exti_disable_request
                0x0000000008018064       0x18 /home/konata/devel/libopencm3/lib/libopencm3_stm32f4.a(exti_common_all.o)
                0x0000000008018064                exti_disable_request
 .text.exti_reset_request
                0x000000000801807c        0xc /home/konata/devel/libopencm3/lib/libopencm3_stm32f4.a(exti_common_all.o)
                0x000000000801807c                exti_reset_request
 .text.exti_get_flag_status
                0x0000000008018088        0xc /home/konata/devel/libopencm3/lib/libopencm3_stm32f4.a(exti_common_all.o)
                0x0000000008018088                exti_get_flag_status
 .text.exti_select_source
                0x0000000008018094       0xdc /home/konata/devel/libopencm3/lib/libopencm3_stm32f4.a(exti_common_all.o)
                0x0000000008018094                exti_select_source
 .text          0x0000000008018170        0x0 /home/konata/devel/libopencm3/lib/libopencm3_stm32f4.a(rcc_common_all.o)
 .text.rcc_peripheral_enable_clock
                0x0000000008018170        0x8 /home/konata/devel/libopencm3/lib/libopencm3_stm32f4.a(rcc_common_all.o)
                0x0000000008018170                rcc_peripheral_enable_clock
 .text.rcc_peripheral_disable_clock
                0x0000000008018178        0xa /home/konata/devel/libopencm3/lib/libopencm3_stm32f4.a(rcc_common_all.o)
                0x0000000008018178                rcc_peripheral_disable_clock
 .text.rcc_peripheral_reset
                0x0000000008018182        0x8 /home/konata/devel/libopencm3/lib/libopencm3_stm32f4.a(rcc_common_all.o)
                0x0000000008018182                rcc_peripheral_reset
 .text.rcc_peripheral_clear_reset
                0x000000000801818a        0xa /home/konata/devel/libopencm3/lib/libopencm3_stm32f4.a(rcc_common_all.o)
                0x000000000801818a                rcc_peripheral_clear_reset
 .text.rcc_periph_clock_enable
                0x0000000008018194       0x1c /home/konata/devel/libopencm3/lib/libopencm3_stm32f4.a(rcc_common_all.o)
                0x0000000008018194                rcc_periph_clock_enable
 .text.rcc_periph_clock_disable
                0x00000000080181b0       0x1e /home/konata/devel/libopencm3/lib/libopencm3_stm32f4.a(rcc_common_all.o)
                0x00000000080181b0                rcc_periph_clock_disable
 .text.rcc_periph_reset_pulse
                0x00000000080181ce       0x26 /home/konata/devel/libopencm3/lib/libopencm3_stm32f4.a(rcc_common_all.o)
                0x00000000080181ce                rcc_periph_reset_pulse
 .text.rcc_periph_reset_hold
                0x00000000080181f4       0x1c /home/konata/devel/libopencm3/lib/libopencm3_stm32f4.a(rcc_common_all.o)
                0x00000000080181f4                rcc_periph_reset_hold
 .text.rcc_periph_reset_release
                0x0000000008018210       0x1e /home/konata/devel/libopencm3/lib/libopencm3_stm32f4.a(rcc_common_all.o)
                0x0000000008018210                rcc_periph_reset_release
 *fill*         0x000000000801822e        0x2 
 .text.rcc_set_mco
                0x0000000008018230       0x14 /home/konata/devel/libopencm3/lib/libopencm3_stm32f4.a(rcc_common_all.o)
                0x0000000008018230                rcc_set_mco
 .text          0x0000000008018244        0x0 /home/konata/devel/libopencm3/lib/libopencm3_stm32f4.a(usb.o)
 .text.usbd_init
                0x0000000008018244       0x58 /home/konata/devel/libopencm3/lib/libopencm3_stm32f4.a(usb.o)
                0x0000000008018244                usbd_init
 .text.usbd_register_reset_callback
                0x000000000801829c        0x4 /home/konata/devel/libopencm3/lib/libopencm3_stm32f4.a(usb.o)
                0x000000000801829c                usbd_register_reset_callback
 .text.usbd_register_suspend_callback
                0x00000000080182a0        0x4 /home/konata/devel/libopencm3/lib/libopencm3_stm32f4.a(usb.o)
                0x00000000080182a0                usbd_register_suspend_callback
 .text.usbd_register_resume_callback
                0x00000000080182a4        0x4 /home/konata/devel/libopencm3/lib/libopencm3_stm32f4.a(usb.o)
                0x00000000080182a4                usbd_register_resume_callback
 .text.usbd_register_sof_callback
                0x00000000080182a8        0x4 /home/konata/devel/libopencm3/lib/libopencm3_stm32f4.a(usb.o)
                0x00000000080182a8                usbd_register_sof_callback
 .text.usbd_poll
                0x00000000080182ac        0x8 /home/konata/devel/libopencm3/lib/libopencm3_stm32f4.a(usb.o)
                0x00000000080182ac                usbd_poll
 .text.usbd_disconnect
                0x00000000080182b4        0xc /home/konata/devel/libopencm3/lib/libopencm3_stm32f4.a(usb.o)
                0x00000000080182b4                usbd_disconnect
 .text.usbd_ep_setup
                0x00000000080182c0       0x10 /home/konata/devel/libopencm3/lib/libopencm3_stm32f4.a(usb.o)
                0x00000000080182c0                usbd_ep_setup
 .text._usbd_reset
                0x00000000080182d0       0x34 /home/konata/devel/libopencm3/lib/libopencm3_stm32f4.a(usb.o)
                0x00000000080182d0                _usbd_reset
 .text.usbd_ep_write_packet
                0x0000000008018304       0x10 /home/konata/devel/libopencm3/lib/libopencm3_stm32f4.a(usb.o)
                0x0000000008018304                usbd_ep_write_packet
 .text.usbd_ep_read_packet
                0x0000000008018314       0x10 /home/konata/devel/libopencm3/lib/libopencm3_stm32f4.a(usb.o)
                0x0000000008018314                usbd_ep_read_packet
 .text.usbd_ep_stall_set
                0x0000000008018324        0x8 /home/konata/devel/libopencm3/lib/libopencm3_stm32f4.a(usb.o)
                0x0000000008018324                usbd_ep_stall_set
 .text.usbd_ep_stall_get
                0x000000000801832c        0x8 /home/konata/devel/libopencm3/lib/libopencm3_stm32f4.a(usb.o)
                0x000000000801832c                usbd_ep_stall_get
 .text.usbd_ep_nak_set
                0x0000000008018334        0x8 /home/konata/devel/libopencm3/lib/libopencm3_stm32f4.a(usb.o)
                0x0000000008018334                usbd_ep_nak_set
 .text          0x000000000801833c        0x0 /home/konata/devel/libopencm3/lib/libopencm3_stm32f4.a(usb_standard.o)
 .text.usb_standard_set_configuration
                0x000000000801833c       0x96 /home/konata/devel/libopencm3/lib/libopencm3_stm32f4.a(usb_standard.o)
 .text.usb_standard_get_configuration
                0x00000000080183d2       0x22 /home/konata/devel/libopencm3/lib/libopencm3_stm32f4.a(usb_standard.o)
 .text.usb_standard_get_interface
                0x00000000080183f4       0x38 /home/konata/devel/libopencm3/lib/libopencm3_stm32f4.a(usb_standard.o)
 .text.usb_standard_interface_get_status
                0x000000000801842c       0x18 /home/konata/devel/libopencm3/lib/libopencm3_stm32f4.a(usb_standard.o)
 .text.usb_standard_endpoint_get_status
                0x0000000008018444       0x2a /home/konata/devel/libopencm3/lib/libopencm3_stm32f4.a(usb_standard.o)
 .text.usb_standard_endpoint_stall
                0x000000000801846e       0x10 /home/konata/devel/libopencm3/lib/libopencm3_stm32f4.a(usb_standard.o)
 .text.usb_standard_endpoint_unstall
                0x000000000801847e       0x10 /home/konata/devel/libopencm3/lib/libopencm3_stm32f4.a(usb_standard.o)
 .text.usb_standard_set_address
                0x000000000801848e       0x2a /home/konata/devel/libopencm3/lib/libopencm3_stm32f4.a(usb_standard.o)
 .text.usb_standard_set_interface
                0x00000000080184b8       0x4e /home/konata/devel/libopencm3/lib/libopencm3_stm32f4.a(usb_standard.o)
 .text.usb_standard_get_descriptor
                0x0000000008018506      0x25e /home/konata/devel/libopencm3/lib/libopencm3_stm32f4.a(usb_standard.o)
 .text.usb_standard_device_get_status
                0x0000000008018764       0x18 /home/konata/devel/libopencm3/lib/libopencm3_stm32f4.a(usb_standard.o)
 .text.usbd_register_set_config_callback
                0x000000000801877c       0x24 /home/konata/devel/libopencm3/lib/libopencm3_stm32f4.a(usb_standard.o)
                0x000000000801877c                usbd_register_set_config_callback
 .text.usbd_register_set_altsetting_callback
                0x00000000080187a0        0x6 /home/konata/devel/libopencm3/lib/libopencm3_stm32f4.a(usb_standard.o)
                0x00000000080187a0                usbd_register_set_altsetting_callback
 *fill*         0x00000000080187a6        0x2 
 .text._usbd_standard_request_device
                0x00000000080187a8       0x20 /home/konata/devel/libopencm3/lib/libopencm3_stm32f4.a(usb_standard.o)
                0x00000000080187a8                _usbd_standard_request_device
 .text._usbd_standard_request_interface
                0x00000000080187c8       0x20 /home/konata/devel/libopencm3/lib/libopencm3_stm32f4.a(usb_standard.o)
                0x00000000080187c8                _usbd_standard_request_interface
 .text._usbd_standard_request_endpoint
                0x00000000080187e8       0x40 /home/konata/devel/libopencm3/lib/libopencm3_stm32f4.a(usb_standard.o)
                0x00000000080187e8                _usbd_standard_request_endpoint
 .text._usbd_standard_request
                0x0000000008018828       0x38 /home/konata/devel/libopencm3/lib/libopencm3_stm32f4.a(usb_standard.o)
                0x0000000008018828                _usbd_standard_request
 .text          0x0000000008018860        0x0 /home/konata/devel/libopencm3/lib/libopencm3_stm32f4.a(usb_control.o)
 .text.stall_transaction
                0x0000000008018860       0x14 /home/konata/devel/libopencm3/lib/libopencm3_stm32f4.a(usb_control.o)
 .text.usb_control_recv_chunk
                0x0000000008018874       0x3c /home/konata/devel/libopencm3/lib/libopencm3_stm32f4.a(usb_control.o)
 .text.usb_control_send_chunk
                0x00000000080188b0       0x56 /home/konata/devel/libopencm3/lib/libopencm3_stm32f4.a(usb_control.o)
 .text.usb_control_request_dispatch
                0x0000000008018906       0x62 /home/konata/devel/libopencm3/lib/libopencm3_stm32f4.a(usb_control.o)
 .text.usb_control_setup_read
                0x0000000008018968       0x6a /home/konata/devel/libopencm3/lib/libopencm3_stm32f4.a(usb_control.o)
 .text.usbd_register_control_callback
                0x00000000080189d2       0x26 /home/konata/devel/libopencm3/lib/libopencm3_stm32f4.a(usb_control.o)
                0x00000000080189d2                usbd_register_control_callback
 .text._usbd_control_setup
                0x00000000080189f8       0x5a /home/konata/devel/libopencm3/lib/libopencm3_stm32f4.a(usb_control.o)
                0x00000000080189f8                _usbd_control_setup
 .text._usbd_control_out
                0x0000000008018a52       0x86 /home/konata/devel/libopencm3/lib/libopencm3_stm32f4.a(usb_control.o)
                0x0000000008018a52                _usbd_control_out
 .text._usbd_control_in
                0x0000000008018ad8       0x56 /home/konata/devel/libopencm3/lib/libopencm3_stm32f4.a(usb_control.o)
                0x0000000008018ad8                _usbd_control_in
 .text          0x0000000008018b2e        0x0 /home/konata/devel/libopencm3/lib/libopencm3_stm32f4.a(usb_f107.o)
 *fill*         0x0000000008018b2e        0x2 
 .text.stm32f107_usbd_init
                0x0000000008018b30       0xd0 /home/konata/devel/libopencm3/lib/libopencm3_stm32f4.a(usb_f107.o)
 .text          0x0000000008018c00        0x0 /home/konata/devel/libopencm3/lib/libopencm3_stm32f4.a(vector.o)
 .text.blocking_handler
                0x0000000008018c00        0x2 /home/konata/devel/libopencm3/lib/libopencm3_stm32f4.a(vector.o)
                0x0000000008018c00                dma2_stream1_isr
                0x0000000008018c00                tim8_brk_tim12_isr
                0x0000000008018c00                dma1_stream7_isr
                0x0000000008018c00                usart3_isr
                0x0000000008018c00                tim7_isr
                0x0000000008018c00                dma2d_isr
                0x0000000008018c00                uart8_isr
                0x0000000008018c00                dma1_stream2_isr
                0x0000000008018c00                otg_hs_isr
                0x0000000008018c00                blocking_handler
                0x0000000008018c00                tim5_isr
                0x0000000008018c00                rtc_wkup_isr
                0x0000000008018c00                spi1_isr
                0x0000000008018c00                i2c3_er_isr
                0x0000000008018c00                spi5_isr
                0x0000000008018c00                usb_fs_wkup_isr
                0x0000000008018c00                tamp_stamp_isr
                0x0000000008018c00                can1_rx1_isr
                0x0000000008018c00                dma2_stream0_isr
                0x0000000008018c00                i2c3_ev_isr
                0x0000000008018c00                can2_rx0_isr
                0x0000000008018c00                dma1_stream6_isr
                0x0000000008018c00                can2_rx1_isr
                0x0000000008018c00                can1_sce_isr
                0x0000000008018c00                tim1_cc_isr
                0x0000000008018c00                can1_tx_isr
                0x0000000008018c00                tim1_up_tim10_isr
                0x0000000008018c00                sdio_isr
                0x0000000008018c00                eth_isr
                0x0000000008018c00                spi6_isr
                0x0000000008018c00                pvd_isr
                0x0000000008018c00                can1_rx0_isr
                0x0000000008018c00                rcc_isr
                0x0000000008018c00                dma2_stream3_isr
                0x0000000008018c00                flash_isr
                0x0000000008018c00                uart4_isr
                0x0000000008018c00                lcd_tft_isr
                0x0000000008018c00                rtc_alarm_isr
                0x0000000008018c00                exti15_10_isr
                0x0000000008018c00                hash_rng_isr
                0x0000000008018c00                tim1_trg_com_tim11_isr
                0x0000000008018c00                exti1_isr
                0x0000000008018c00                i2c1_ev_isr
                0x0000000008018c00                usart6_isr
                0x0000000008018c00                spi2_isr
                0x0000000008018c00                cryp_isr
                0x0000000008018c00                nvic_wwdg_isr
                0x0000000008018c00                dma1_stream1_isr
                0x0000000008018c00                dma2_stream4_isr
                0x0000000008018c00                exti3_isr
                0x0000000008018c00                tim3_isr
                0x0000000008018c00                usart2_isr
                0x0000000008018c00                sai1_isr
                0x0000000008018c00                fpu_isr
                0x0000000008018c00                i2c2_er_isr
                0x0000000008018c00                i2c2_ev_isr
                0x0000000008018c00                uart5_isr
                0x0000000008018c00                spi4_isr
                0x0000000008018c00                adc_isr
                0x0000000008018c00                tim8_up_tim13_isr
                0x0000000008018c00                fsmc_isr
                0x0000000008018c00                exti4_isr
                0x0000000008018c00                tim6_dac_isr
                0x0000000008018c00                dma1_stream3_isr
                0x0000000008018c00                tim8_trg_com_tim14_isr
                0x0000000008018c00                mem_manage_handler
                0x0000000008018c00                lcd_tft_err_isr
                0x0000000008018c00                can2_tx_isr
                0x0000000008018c00                exti9_5_isr
                0x0000000008018c00                tim1_brk_tim9_isr
                0x0000000008018c00                uart7_isr
                0x0000000008018c00                can2_sce_isr
                0x0000000008018c00                tim4_isr
                0x0000000008018c00                otg_hs_wkup_isr
                0x0000000008018c00                i2c1_er_isr
                0x0000000008018c00                dma1_stream0_isr
                0x0000000008018c00                tim8_cc_isr
                0x0000000008018c00                dcmi_isr
                0x0000000008018c00                dma2_stream2_isr
                0x0000000008018c00                eth_wkup_isr
                0x0000000008018c00                otg_hs_ep1_out_isr
                0x0000000008018c00                spi3_isr
                0x0000000008018c00                dma1_stream5_isr
                0x0000000008018c00                otg_hs_ep1_in_isr
                0x0000000008018c00                tim2_isr
                0x0000000008018c00                exti0_isr
 .text.null_handler
                0x0000000008018c02        0x2 /home/konata/devel/libopencm3/lib/libopencm3_stm32f4.a(vector.o)
                0x0000000008018c02                null_handler
                0x0000000008018c02                sv_call_handler
                0x0000000008018c02                pend_sv_handler
                0x0000000008018c02                debug_monitor_handler
                0x0000000008018c02                nmi_handler
 .text.reset_handler
                0x0000000008018c04       0x98 /home/konata/devel/libopencm3/lib/libopencm3_stm32f4.a(vector.o)
                0x0000000008018c04                reset_handler
 .text          0x0000000008018c9c        0x0 /home/konata/devel/libopencm3/lib/libopencm3_stm32f4.a(systick.o)
 .text.systick_set_reload
                0x0000000008018c9c       0x10 /home/konata/devel/libopencm3/lib/libopencm3_stm32f4.a(systick.o)
                0x0000000008018c9c                systick_set_reload
 .text.systick_get_reload
                0x0000000008018cac       0x10 /home/konata/devel/libopencm3/lib/libopencm3_stm32f4.a(systick.o)
                0x0000000008018cac                systick_get_reload
 .text.systick_get_value
                0x0000000008018cbc       0x10 /home/konata/devel/libopencm3/lib/libopencm3_stm32f4.a(systick.o)
                0x0000000008018cbc                systick_get_value
 .text.systick_set_clocksource
                0x0000000008018ccc       0x18 /home/konata/devel/libopencm3/lib/libopencm3_stm32f4.a(systick.o)
                0x0000000008018ccc                systick_set_clocksource
 .text.systick_set_frequency
                0x0000000008018ce4       0x3c /home/konata/devel/libopencm3/lib/libopencm3_stm32f4.a(systick.o)
                0x0000000008018ce4                systick_set_frequency
 .text.systick_interrupt_enable
                0x0000000008018d20       0x10 /home/konata/devel/libopencm3/lib/libopencm3_stm32f4.a(systick.o)
                0x0000000008018d20                systick_interrupt_enable
 .text.systick_interrupt_disable
                0x0000000008018d30       0x10 /home/konata/devel/libopencm3/lib/libopencm3_stm32f4.a(systick.o)
                0x0000000008018d30                systick_interrupt_disable
 .text.systick_counter_enable
                0x0000000008018d40       0x10 /home/konata/devel/libopencm3/lib/libopencm3_stm32f4.a(systick.o)
                0x0000000008018d40                systick_counter_enable
 .text.systick_counter_disable
                0x0000000008018d50       0x10 /home/konata/devel/libopencm3/lib/libopencm3_stm32f4.a(systick.o)
                0x0000000008018d50                systick_counter_disable
 .text.systick_get_countflag
                0x0000000008018d60       0x10 /home/konata/devel/libopencm3/lib/libopencm3_stm32f4.a(systick.o)
                0x0000000008018d60                systick_get_countflag
 .text.systick_clear
                0x0000000008018d70        0xc /home/konata/devel/libopencm3/lib/libopencm3_stm32f4.a(systick.o)
                0x0000000008018d70                systick_clear
 .text.systick_get_calib
                0x0000000008018d7c       0x10 /home/konata/devel/libopencm3/lib/libopencm3_stm32f4.a(systick.o)
                0x0000000008018d7c                systick_get_calib
 .text          0x0000000008018d8c        0x0 /home/konata/devel/libopencm3/lib/libopencm3_stm32f4.a(nvic.o)
 .text.nvic_enable_irq
                0x0000000008018d8c       0x1c /home/konata/devel/libopencm3/lib/libopencm3_stm32f4.a(nvic.o)
                0x0000000008018d8c                nvic_enable_irq
 .text.nvic_disable_irq
                0x0000000008018da8       0x1c /home/konata/devel/libopencm3/lib/libopencm3_stm32f4.a(nvic.o)
                0x0000000008018da8                nvic_disable_irq
 .text.nvic_get_pending_irq
                0x0000000008018dc4       0x24 /home/konata/devel/libopencm3/lib/libopencm3_stm32f4.a(nvic.o)
                0x0000000008018dc4                nvic_get_pending_irq
 .text.nvic_set_pending_irq
                0x0000000008018de8       0x1c /home/konata/devel/libopencm3/lib/libopencm3_stm32f4.a(nvic.o)
                0x0000000008018de8                nvic_set_pending_irq
 .text.nvic_clear_pending_irq
                0x0000000008018e04       0x1c /home/konata/devel/libopencm3/lib/libopencm3_stm32f4.a(nvic.o)
                0x0000000008018e04                nvic_clear_pending_irq
 .text.nvic_get_irq_enabled
                0x0000000008018e20       0x24 /home/konata/devel/libopencm3/lib/libopencm3_stm32f4.a(nvic.o)
                0x0000000008018e20                nvic_get_irq_enabled
 .text.nvic_set_priority
                0x0000000008018e44       0x20 /home/konata/devel/libopencm3/lib/libopencm3_stm32f4.a(nvic.o)
                0x0000000008018e44                nvic_set_priority
 .text.nvic_get_active_irq
                0x0000000008018e64       0x24 /home/konata/devel/libopencm3/lib/libopencm3_stm32f4.a(nvic.o)
                0x0000000008018e64                nvic_get_active_irq
 .text.nvic_generate_software_interrupt
                0x0000000008018e88       0x14 /home/konata/devel/libopencm3/lib/libopencm3_stm32f4.a(nvic.o)
                0x0000000008018e88                nvic_generate_software_interrupt
 .text          0x0000000008018e9c        0x0 /home/konata/devel/libopencm3/lib/libopencm3_stm32f4.a(pwr.o)
 .text.pwr_set_vos_scale
                0x0000000008018e9c       0x20 /home/konata/devel/libopencm3/lib/libopencm3_stm32f4.a(pwr.o)
                0x0000000008018e9c                pwr_set_vos_scale
 .text          0x0000000008018ebc        0x0 /home/konata/devel/libopencm3/lib/libopencm3_stm32f4.a(usb_fx07_common.o)
 .text.stm32fx07_set_address
                0x0000000008018ebc       0x18 /home/konata/devel/libopencm3/lib/libopencm3_stm32f4.a(usb_fx07_common.o)
                0x0000000008018ebc                stm32fx07_set_address
 .text.stm32fx07_ep_setup
                0x0000000008018ed4      0x144 /home/konata/devel/libopencm3/lib/libopencm3_stm32f4.a(usb_fx07_common.o)
                0x0000000008018ed4                stm32fx07_ep_setup
 .text.stm32fx07_endpoints_reset
                0x0000000008019018       0x4c /home/konata/devel/libopencm3/lib/libopencm3_stm32f4.a(usb_fx07_common.o)
                0x0000000008019018                stm32fx07_endpoints_reset
 .text.stm32fx07_ep_stall_set
                0x0000000008019064       0x4e /home/konata/devel/libopencm3/lib/libopencm3_stm32f4.a(usb_fx07_common.o)
                0x0000000008019064                stm32fx07_ep_stall_set
 .text.stm32fx07_ep_stall_get
                0x00000000080190b2       0x1e /home/konata/devel/libopencm3/lib/libopencm3_stm32f4.a(usb_fx07_common.o)
                0x00000000080190b2                stm32fx07_ep_stall_get
 .text.stm32fx07_ep_nak_set
                0x00000000080190d0       0x2a /home/konata/devel/libopencm3/lib/libopencm3_stm32f4.a(usb_fx07_common.o)
                0x00000000080190d0                stm32fx07_ep_nak_set
 .text.stm32fx07_ep_write_packet
                0x00000000080190fa       0x4c /home/konata/devel/libopencm3/lib/libopencm3_stm32f4.a(usb_fx07_common.o)
                0x00000000080190fa                stm32fx07_ep_write_packet
 .text.stm32fx07_ep_read_packet
                0x0000000008019146       0x60 /home/konata/devel/libopencm3/lib/libopencm3_stm32f4.a(usb_fx07_common.o)
                0x0000000008019146                stm32fx07_ep_read_packet
 .text.stm32fx07_poll
                0x00000000080191a6      0x1c6 /home/konata/devel/libopencm3/lib/libopencm3_stm32f4.a(usb_fx07_common.o)
                0x00000000080191a6                stm32fx07_poll
 .text.stm32fx07_disconnect
                0x000000000801936c       0x1c /home/konata/devel/libopencm3/lib/libopencm3_stm32f4.a(usb_fx07_common.o)
                0x000000000801936c                stm32fx07_disconnect
 .text          0x0000000008019388        0x0 /home/kaori/devel/stm32/gcc-arm-none-eabi-8-2018-q4-major/bin/../lib/gcc/arm-none-eabi/8.2.1/../../../../arm-none-eabi/lib/thumb/v7e-m+fp/hard/libc_nano.a(lib_a-malloc.o)
 .text.malloc   0x0000000008019388       0x10 /home/kaori/devel/stm32/gcc-arm-none-eabi-8-2018-q4-major/bin/../lib/gcc/arm-none-eabi/8.2.1/../../../../arm-none-eabi/lib/thumb/v7e-m+fp/hard/libc_nano.a(lib_a-malloc.o)
                0x0000000008019388                malloc
 .text.free     0x0000000008019398       0x10 /home/kaori/devel/stm32/gcc-arm-none-eabi-8-2018-q4-major/bin/../lib/gcc/arm-none-eabi/8.2.1/../../../../arm-none-eabi/lib/thumb/v7e-m+fp/hard/libc_nano.a(lib_a-malloc.o)
                0x0000000008019398                free
 .text          0x00000000080193a8        0x0 /home/kaori/devel/stm32/gcc-arm-none-eabi-8-2018-q4-major/bin/../lib/gcc/arm-none-eabi/8.2.1/../../../../arm-none-eabi/lib/thumb/v7e-m+fp/hard/libc_nano.a(lib_a-memcpy-stub.o)
 .text.memcpy   0x00000000080193a8       0x1c /home/kaori/devel/stm32/gcc-arm-none-eabi-8-2018-q4-major/bin/../lib/gcc/arm-none-eabi/8.2.1/../../../../arm-none-eabi/lib/thumb/v7e-m+fp/hard/libc_nano.a(lib_a-memcpy-stub.o)
                0x00000000080193a8                memcpy
 .text          0x00000000080193c4        0x0 /home/kaori/devel/stm32/gcc-arm-none-eabi-8-2018-q4-major/bin/../lib/gcc/arm-none-eabi/8.2.1/../../../../arm-none-eabi/lib/thumb/v7e-m+fp/hard/libc_nano.a(lib_a-memset.o)
 .text.memset   0x00000000080193c4       0x10 /home/kaori/devel/stm32/gcc-arm-none-eabi-8-2018-q4-major/bin/../lib/gcc/arm-none-eabi/8.2.1/../../../../arm-none-eabi/lib/thumb/v7e-m+fp/hard/libc_nano.a(lib_a-memset.o)
                0x00000000080193c4                memset
 .text          0x00000000080193d4        0x0 /home/kaori/devel/stm32/gcc-arm-none-eabi-8-2018-q4-major/bin/../lib/gcc/arm-none-eabi/8.2.1/../../../../arm-none-eabi/lib/thumb/v7e-m+fp/hard/libc_nano.a(lib_a-nano-freer.o)
 .text._free_r  0x00000000080193d4       0x9c /home/kaori/devel/stm32/gcc-arm-none-eabi-8-2018-q4-major/bin/../lib/gcc/arm-none-eabi/8.2.1/../../../../arm-none-eabi/lib/thumb/v7e-m+fp/hard/libc_nano.a(lib_a-nano-freer.o)
                0x00000000080193d4                _free_r
 .text          0x0000000008019470        0x0 /home/kaori/devel/stm32/gcc-arm-none-eabi-8-2018-q4-major/bin/../lib/gcc/arm-none-eabi/8.2.1/../../../../arm-none-eabi/lib/thumb/v7e-m+fp/hard/libc_nano.a(lib_a-nano-mallocr.o)
 .text._malloc_r
                0x0000000008019470       0xb4 /home/kaori/devel/stm32/gcc-arm-none-eabi-8-2018-q4-major/bin/../lib/gcc/arm-none-eabi/8.2.1/../../../../arm-none-eabi/lib/thumb/v7e-m+fp/hard/libc_nano.a(lib_a-nano-mallocr.o)
                0x0000000008019470                _malloc_r
 .text          0x0000000008019524        0x0 /home/kaori/devel/stm32/gcc-arm-none-eabi-8-2018-q4-major/bin/../lib/gcc/arm-none-eabi/8.2.1/../../../../arm-none-eabi/lib/thumb/v7e-m+fp/hard/libc_nano.a(lib_a-sbrkr.o)
 .text._sbrk_r  0x0000000008019524       0x20 /home/kaori/devel/stm32/gcc-arm-none-eabi-8-2018-q4-major/bin/../lib/gcc/arm-none-eabi/8.2.1/../../../../arm-none-eabi/lib/thumb/v7e-m+fp/hard/libc_nano.a(lib_a-sbrkr.o)
                0x0000000008019524                _sbrk_r
 .text          0x0000000008019544        0x0 /home/kaori/devel/stm32/gcc-arm-none-eabi-8-2018-q4-major/bin/../lib/gcc/arm-none-eabi/8.2.1/../../../../arm-none-eabi/lib/thumb/v7e-m+fp/hard/libc_nano.a(lib_a-strchr.o)
 .text.strchr   0x0000000008019544       0x1a /home/kaori/devel/stm32/gcc-arm-none-eabi-8-2018-q4-major/bin/../lib/gcc/arm-none-eabi/8.2.1/../../../../arm-none-eabi/lib/thumb/v7e-m+fp/hard/libc_nano.a(lib_a-strchr.o)
                0x0000000008019544                strchr
 .text          0x000000000801955e       0x14 /home/kaori/devel/stm32/gcc-arm-none-eabi-8-2018-q4-major/bin/../lib/gcc/arm-none-eabi/8.2.1/../../../../arm-none-eabi/lib/thumb/v7e-m+fp/hard/libc_nano.a(lib_a-strcmp.o)
                0x000000000801955e                strcmp
 .text          0x0000000008019572        0x0 /home/kaori/devel/stm32/gcc-arm-none-eabi-8-2018-q4-major/bin/../lib/gcc/arm-none-eabi/8.2.1/../../../../arm-none-eabi/lib/thumb/v7e-m+fp/hard/libc_nano.a(lib_a-strcpy.o)
 .text.strcpy   0x0000000008019572       0x10 /home/kaori/devel/stm32/gcc-arm-none-eabi-8-2018-q4-major/bin/../lib/gcc/arm-none-eabi/8.2.1/../../../../arm-none-eabi/lib/thumb/v7e-m+fp/hard/libc_nano.a(lib_a-strcpy.o)
                0x0000000008019572                strcpy
 .text          0x0000000008019582       0x10 /home/kaori/devel/stm32/gcc-arm-none-eabi-8-2018-q4-major/bin/../lib/gcc/arm-none-eabi/8.2.1/../../../../arm-none-eabi/lib/thumb/v7e-m+fp/hard/libc_nano.a(lib_a-strlen.o)
                0x0000000008019582                strlen
 .text          0x0000000008019592        0x0 /home/kaori/devel/stm32/gcc-arm-none-eabi-8-2018-q4-major/bin/../lib/gcc/arm-none-eabi/8.2.1/../../../../arm-none-eabi/lib/thumb/v7e-m+fp/hard/libc_nano.a(lib_a-strstr.o)
 .text.strstr   0x0000000008019592       0x2e /home/kaori/devel/stm32/gcc-arm-none-eabi-8-2018-q4-major/bin/../lib/gcc/arm-none-eabi/8.2.1/../../../../arm-none-eabi/lib/thumb/v7e-m+fp/hard/libc_nano.a(lib_a-strstr.o)
                0x0000000008019592                strstr
 .text          0x00000000080195c0        0x0 /home/kaori/devel/stm32/gcc-arm-none-eabi-8-2018-q4-major/bin/../lib/gcc/arm-none-eabi/8.2.1/../../../../arm-none-eabi/lib/thumb/v7e-m+fp/hard/libc_nano.a(lib_a-impure.o)
 .text          0x00000000080195c0        0x0 /home/kaori/devel/stm32/gcc-arm-none-eabi-8-2018-q4-major/bin/../lib/gcc/arm-none-eabi/8.2.1/../../../../arm-none-eabi/lib/thumb/v7e-m+fp/hard/libc_nano.a(lib_a-mlock.o)
 .text.__malloc_lock
                0x00000000080195c0        0xc /home/kaori/devel/stm32/gcc-arm-none-eabi-8-2018-q4-major/bin/../lib/gcc/arm-none-eabi/8.2.1/../../../../arm-none-eabi/lib/thumb/v7e-m+fp/hard/libc_nano.a(lib_a-mlock.o)
                0x00000000080195c0                __malloc_lock
 .text.__malloc_unlock
                0x00000000080195cc        0xc /home/kaori/devel/stm32/gcc-arm-none-eabi-8-2018-q4-major/bin/../lib/gcc/arm-none-eabi/8.2.1/../../../../arm-none-eabi/lib/thumb/v7e-m+fp/hard/libc_nano.a(lib_a-mlock.o)
                0x00000000080195cc                __malloc_unlock
 .text          0x00000000080195d8        0x0 /home/kaori/devel/stm32/gcc-arm-none-eabi-8-2018-q4-major/bin/../lib/gcc/arm-none-eabi/8.2.1/../../../../arm-none-eabi/lib/thumb/v7e-m+fp/hard/libc_nano.a(lib_a-reent.o)
 .text.cleanup_glue
                0x00000000080195d8       0x1a /home/kaori/devel/stm32/gcc-arm-none-eabi-8-2018-q4-major/bin/../lib/gcc/arm-none-eabi/8.2.1/../../../../arm-none-eabi/lib/thumb/v7e-m+fp/hard/libc_nano.a(lib_a-reent.o)
                0x00000000080195d8                cleanup_glue
 *fill*         0x00000000080195f2        0x2 
 .text._reclaim_reent
                0x00000000080195f4       0xb8 /home/kaori/devel/stm32/gcc-arm-none-eabi-8-2018-q4-major/bin/../lib/gcc/arm-none-eabi/8.2.1/../../../../arm-none-eabi/lib/thumb/v7e-m+fp/hard/libc_nano.a(lib_a-reent.o)
                0x00000000080195f4                _reclaim_reent
 .text          0x00000000080196ac        0x0 /home/kaori/devel/stm32/gcc-arm-none-eabi-8-2018-q4-major/bin/../lib/gcc/arm-none-eabi/8.2.1/../../../../arm-none-eabi/lib/thumb/v7e-m+fp/hard/libc_nano.a(lib_a-lock.o)
 .text.__retarget_lock_init
                0x00000000080196ac        0x2 /home/kaori/devel/stm32/gcc-arm-none-eabi-8-2018-q4-major/bin/../lib/gcc/arm-none-eabi/8.2.1/../../../../arm-none-eabi/lib/thumb/v7e-m+fp/hard/libc_nano.a(lib_a-lock.o)
                0x00000000080196ac                __retarget_lock_init
 .text.__retarget_lock_init_recursive
                0x00000000080196ae        0x2 /home/kaori/devel/stm32/gcc-arm-none-eabi-8-2018-q4-major/bin/../lib/gcc/arm-none-eabi/8.2.1/../../../../arm-none-eabi/lib/thumb/v7e-m+fp/hard/libc_nano.a(lib_a-lock.o)
                0x00000000080196ae                __retarget_lock_init_recursive
 .text.__retarget_lock_close
                0x00000000080196b0        0x2 /home/kaori/devel/stm32/gcc-arm-none-eabi-8-2018-q4-major/bin/../lib/gcc/arm-none-eabi/8.2.1/../../../../arm-none-eabi/lib/thumb/v7e-m+fp/hard/libc_nano.a(lib_a-lock.o)
                0x00000000080196b0                __retarget_lock_close
 .text.__retarget_lock_close_recursive
                0x00000000080196b2        0x2 /home/kaori/devel/stm32/gcc-arm-none-eabi-8-2018-q4-major/bin/../lib/gcc/arm-none-eabi/8.2.1/../../../../arm-none-eabi/lib/thumb/v7e-m+fp/hard/libc_nano.a(lib_a-lock.o)
                0x00000000080196b2                __retarget_lock_close_recursive
 .text.__retarget_lock_acquire
                0x00000000080196b4        0x2 /home/kaori/devel/stm32/gcc-arm-none-eabi-8-2018-q4-major/bin/../lib/gcc/arm-none-eabi/8.2.1/../../../../arm-none-eabi/lib/thumb/v7e-m+fp/hard/libc_nano.a(lib_a-lock.o)
                0x00000000080196b4                __retarget_lock_acquire
 .text.__retarget_lock_acquire_recursive
                0x00000000080196b6        0x2 /home/kaori/devel/stm32/gcc-arm-none-eabi-8-2018-q4-major/bin/../lib/gcc/arm-none-eabi/8.2.1/../../../../arm-none-eabi/lib/thumb/v7e-m+fp/hard/libc_nano.a(lib_a-lock.o)
                0x00000000080196b6                __retarget_lock_acquire_recursive
 .text.__retarget_lock_try_acquire
                0x00000000080196b8        0x4 /home/kaori/devel/stm32/gcc-arm-none-eabi-8-2018-q4-major/bin/../lib/gcc/arm-none-eabi/8.2.1/../../../../arm-none-eabi/lib/thumb/v7e-m+fp/hard/libc_nano.a(lib_a-lock.o)
                0x00000000080196b8                __retarget_lock_try_acquire
 .text.__retarget_lock_try_acquire_recursive
                0x00000000080196bc        0x4 /home/kaori/devel/stm32/gcc-arm-none-eabi-8-2018-q4-major/bin/../lib/gcc/arm-none-eabi/8.2.1/../../../../arm-none-eabi/lib/thumb/v7e-m+fp/hard/libc_nano.a(lib_a-lock.o)
                0x00000000080196bc                __retarget_lock_try_acquire_recursive
 .text.__retarget_lock_release
                0x00000000080196c0        0x2 /home/kaori/devel/stm32/gcc-arm-none-eabi-8-2018-q4-major/bin/../lib/gcc/arm-none-eabi/8.2.1/../../../../arm-none-eabi/lib/thumb/v7e-m+fp/hard/libc_nano.a(lib_a-lock.o)
                0x00000000080196c0                __retarget_lock_release
 .text.__retarget_lock_release_recursive
                0x00000000080196c2        0x2 /home/kaori/devel/stm32/gcc-arm-none-eabi-8-2018-q4-major/bin/../lib/gcc/arm-none-eabi/8.2.1/../../../../arm-none-eabi/lib/thumb/v7e-m+fp/hard/libc_nano.a(lib_a-lock.o)
                0x00000000080196c2                __retarget_lock_release_recursive
 .text          0x00000000080196c4        0x0 /home/kaori/devel/stm32/gcc-arm-none-eabi-8-2018-q4-major/bin/../lib/gcc/arm-none-eabi/8.2.1/../../../../arm-none-eabi/lib/thumb/v7e-m+fp/hard/libnosys.a(sbrk.o)
 .text._sbrk    0x00000000080196c4       0x1c /home/kaori/devel/stm32/gcc-arm-none-eabi-8-2018-q4-major/bin/../lib/gcc/arm-none-eabi/8.2.1/../../../../arm-none-eabi/lib/thumb/v7e-m+fp/hard/libnosys.a(sbrk.o)
                0x00000000080196c4                _sbrk
                0x00000000080196e0                . = ALIGN (0x4)
 *(.rodata*)
 .rodata.mew_logo
                0x00000000080196e0        0x8 ././ui/mew_logo.o
                0x00000000080196e0                mew_logo
 .rodata.mew_logo_pixel_map
                0x00000000080196e8     0x2480 ././ui/mew_logo.o
 .rodata        0x000000000801bb68        0x6 ././ui/pinpad.o
 *fill*         0x000000000801bb6e        0x2 
 .rodata.mew_ui_show_pinpad.str1.4
                0x000000000801bb70        0xe ././ui/pinpad.o
 *fill*         0x000000000801bb7e        0x2 
 .rodata.str1.4
                0x000000000801bb80       0x2f ././ui/pinpad.o
                                         0x33 (size before relaxing)
 *fill*         0x000000000801bbaf        0x1 
 .rodata.__mew_input_read.str1.4
                0x000000000801bbb0       0x6c ././drivers/display/ts_tsc2007.o
 .rodata.mew_touchscreen_init.str1.4
                0x000000000801bc1c       0x25 ././drivers/display/ts_tsc2007.o
 *fill*         0x000000000801bc41        0x3 
 .rodata        0x000000000801bc44       0x7c ././drivers/display/display.o
 .rodata.__mew_display_flush.str1.4
                0x000000000801bcc0       0x16 ././drivers/display/display.o
 *fill*         0x000000000801bcd6        0x2 
 .rodata._mew_at_is_cofigured_name
                0x000000000801bcd8       0x10 ././drivers/bluetooth/bt_usart.o
 .rodata._mew_at_is_set_name
                0x000000000801bce8       0x10 ././drivers/bluetooth/bt_usart.o
 .rodata._mew_at_is_transparent
                0x000000000801bcf8       0x10 ././drivers/bluetooth/bt_usart.o
 .rodata.mew_bluetooth_init.str1.4
                0x000000000801bd08       0x47 ././drivers/bluetooth/bt_usart.o
 *fill*         0x000000000801bd4f        0x1 
 .rodata.str1.4
                0x000000000801bd50       0x2f ././drivers/bluetooth/bt_usart.o
 *fill*         0x000000000801bd7f        0x1 
 .rodata._mew_ss_array
                0x000000000801bd80      0x240 ././drivers/flash/otp_storage.o
 .rodata.mew_otp_storage_init.str1.4
                0x000000000801bfc0       0x45 ././drivers/flash/otp_storage.o
 *fill*         0x000000000801c005        0x3 
 .rodata.mew_wait_for_state.str1.4
                0x000000000801c008       0x11 ././drivers/system/system.o
 *fill*         0x000000000801c019        0x3 
 .rodata.MEW_SPI_FLASH_CMD__READ_ID
                0x000000000801c01c        0x2 ././drivers/spi_flash/w25n01gvzeig.o
 *fill*         0x000000000801c01e        0x2 
 .rodata.CSWTCH.2
                0x000000000801c020        0xf ././drivers/duart/duart.o
 *fill*         0x000000000801c02f        0x1 
 .rodata.mew_i2c_read_block_ts2007.str1.4
                0x000000000801c030       0x25 ././drivers/i2c/i2c.o
 *fill*         0x000000000801c055        0x3 
 .rodata.config
                0x000000000801c058        0xd ././drivers/usb/mew_usb_hid.o
                0x000000000801c058                config
 *fill*         0x000000000801c065        0x3 
 .rodata.dev    0x000000000801c068       0x12 ././drivers/usb/mew_usb_hid.o
                0x000000000801c068                dev
 *fill*         0x000000000801c07a        0x2 
 .rodata.hid_endpoints
                0x000000000801c07c       0x1e ././drivers/usb/mew_usb_hid.o
                0x000000000801c07c                hid_endpoints
 *fill*         0x000000000801c09a        0x2 
 .rodata.hid_function
                0x000000000801c09c        0x9 ././drivers/usb/mew_usb_hid.o
 *fill*         0x000000000801c0a5        0x3 
 .rodata.hid_iface
                0x000000000801c0a8       0x15 ././drivers/usb/mew_usb_hid.o
                0x000000000801c0a8                hid_iface
 *fill*         0x000000000801c0bd        0x3 
 .rodata.ifaces
                0x000000000801c0c0       0x10 ././drivers/usb/mew_usb_hid.o
                0x000000000801c0c0                ifaces
 .rodata.keyboard_report_descriptor
                0x000000000801c0d0       0x3d ././drivers/usb/mew_usb_hid.o
                0x000000000801c0d0                keyboard_report_descriptor
 *fill*         0x000000000801c10d        0x3 
 .rodata.str1.4
                0x000000000801c110       0x24 ././drivers/usb/mew_usb_hid.o
 .rodata.mewcrypt_aes256.str1.4
                0x000000000801c134       0x36 ././drivers/hw_crypt/aes256.o
 *fill*         0x000000000801c16a        0x2 
 .rodata.lv_obj_signal.str1.4
                0x000000000801c16c        0x7 ././lvgl/lv_core/lv_obj.o
 *fill*         0x000000000801c173        0x1 
 .rodata        0x000000000801c174       0x5e ././lvgl/lv_core/lv_style.o
 *fill*         0x000000000801c1d2        0x2 
 .rodata.lv_app_kb_action.str1.4
                0x000000000801c1d4       0x28 ././lvgl/lv_objx/lv_kb.o
                                         0x2c (size before relaxing)
 .rodata.lv_kb_signal.str1.4
                0x000000000801c1fc        0x6 ././lvgl/lv_objx/lv_kb.o
 *fill*         0x000000000801c202        0x2 
 .rodata.str1.4
                0x000000000801c204      0x186 ././lvgl/lv_objx/lv_kb.o
                                        0x1c2 (size before relaxing)
 *fill*         0x000000000801c38a        0x2 
 .rodata.lv_sw_signal.str1.4
                0x000000000801c38c        0x6 ././lvgl/lv_objx/lv_sw.o
 .rodata.lv_img_get_file_name.str1.4
                0x000000000801c392        0x1 ././lvgl/lv_objx/lv_img.o
 *fill*         0x000000000801c392        0x2 
 .rodata.lv_img_signal.str1.4
                0x000000000801c394        0x7 ././lvgl/lv_objx/lv_img.o
 *fill*         0x000000000801c39b        0x1 
 .rodata.lv_slider_signal.str1.4
                0x000000000801c39c        0xa ././lvgl/lv_objx/lv_slider.o
 *fill*         0x000000000801c3a6        0x2 
 .rodata.lv_ta_create.str1.4
                0x000000000801c3a8        0xa ././lvgl/lv_objx/lv_ta.o
 *fill*         0x000000000801c3b2        0x2 
 .rodata.lv_ta_signal.str1.4
                0x000000000801c3b4        0x6 ././lvgl/lv_objx/lv_ta.o
 *fill*         0x000000000801c3ba        0x2 
 .rodata.lv_chart_signal.str1.4
                0x000000000801c3bc        0x9 ././lvgl/lv_objx/lv_chart.o
 *fill*         0x000000000801c3c5        0x3 
 .rodata.lv_ddlist_create.str1.4
                0x000000000801c3c8       0x1b ././lvgl/lv_objx/lv_ddlist.o
 *fill*         0x000000000801c3e3        0x1 
 .rodata.lv_ddlist_signal.str1.4
                0x000000000801c3e4        0xa ././lvgl/lv_objx/lv_ddlist.o
 *fill*         0x000000000801c3ee        0x2 
 .rodata.lv_cb_create.str1.4
                0x000000000801c3f0        0xa ././lvgl/lv_objx/lv_cb.o
 *fill*         0x000000000801c3fa        0x2 
 .rodata.lv_cb_signal.str1.4
                0x000000000801c3fc        0x6 ././lvgl/lv_objx/lv_cb.o
 *fill*         0x000000000801c402        0x2 
 .rodata.lv_mbox_create.str1.4
                0x000000000801c404        0x8 ././lvgl/lv_objx/lv_mbox.o
 .rodata.lv_mbox_signal.str1.4
                0x000000000801c40c        0x8 ././lvgl/lv_objx/lv_mbox.o
 .rodata.lv_roller_signal.str1.4
                0x000000000801c414        0xa ././lvgl/lv_objx/lv_roller.o
 *fill*         0x000000000801c41e        0x2 
 .rodata.lv_gauge_signal.str1.4
                0x000000000801c420        0x9 ././lvgl/lv_objx/lv_gauge.o
 *fill*         0x000000000801c429        0x3 
 .rodata.lv_win_create.str1.4
                0x000000000801c42c        0x9 ././lvgl/lv_objx/lv_win.o
 *fill*         0x000000000801c435        0x3 
 .rodata.lv_win_signal.str1.4
                0x000000000801c438        0x7 ././lvgl/lv_objx/lv_win.o
 .rodata.lv_list_get_btn_text.str1.4
                0x000000000801c43f        0x1 ././lvgl/lv_objx/lv_list.o
 .rodata.lv_tabview_add_tab.str1.4
                0x000000000801c43f        0x1 ././lvgl/lv_objx/lv_tabview.o
 *fill*         0x000000000801c43f        0x1 
 .rodata.lv_tabview_signal.str1.4
                0x000000000801c440        0xb ././lvgl/lv_objx/lv_tabview.o
 *fill*         0x000000000801c44b        0x1 
 .rodata.lv_line_signal.str1.4
                0x000000000801c44c        0x8 ././lvgl/lv_objx/lv_line.o
 .rodata.lv_btn_signal.str1.4
                0x000000000801c454        0x7 ././lvgl/lv_objx/lv_btn.o
 *fill*         0x000000000801c45b        0x1 
 .rodata.lv_label_create.str1.4
                0x000000000801c45c        0x5 ././lvgl/lv_objx/lv_label.o
 *fill*         0x000000000801c461        0x3 
 .rodata.lv_label_signal.str1.4
                0x000000000801c464        0x9 ././lvgl/lv_objx/lv_label.o
 *fill*         0x000000000801c46d        0x3 
 .rodata.lv_page_signal.str1.4
                0x000000000801c470        0x8 ././lvgl/lv_objx/lv_page.o
 .rodata.lv_lmeter_signal.str1.4
                0x000000000801c478        0xa ././lvgl/lv_objx/lv_lmeter.o
 *fill*         0x000000000801c482        0x2 
 .rodata.lv_led_signal.str1.4
                0x000000000801c484        0x7 ././lvgl/lv_objx/lv_led.o
 .rodata.get_button_text.str1.4
                0x000000000801c48b        0x2 ././lvgl/lv_objx/lv_btnm.o
 *fill*         0x000000000801c48b        0x1 
 .rodata.str1.4
                0x000000000801c48c       0x25 ././lvgl/lv_objx/lv_btnm.o
                                         0x29 (size before relaxing)
 *fill*         0x000000000801c4b1        0x3 
 .rodata.lv_cont_signal.str1.4
                0x000000000801c4b4        0x8 ././lvgl/lv_objx/lv_cont.o
 .rodata.lv_bar_signal.str1.4
                0x000000000801c4bc        0x7 ././lvgl/lv_objx/lv_bar.o
 *fill*         0x000000000801c4c3        0x1 
 .rodata.CSWTCH.374
                0x000000000801c4c4        0x6 ././lvgl/lv_draw/lv_draw.o
 *fill*         0x000000000801c4ca        0x2 
 .rodata.CSWTCH.589
                0x000000000801c4cc        0x3 ././lvgl/lv_draw/lv_draw.o
 *fill*         0x000000000801c4cf        0x1 
 .rodata.lv_draw_img.str1.4
                0x000000000801c4d0       0x10 ././lvgl/lv_draw/lv_draw.o
 .rodata.opa_map.8410
                0x000000000801c4e0        0x8 ././lvgl/lv_draw/lv_draw.o
 .rodata.seg1.8396
                0x000000000801c4e8        0x1 ././lvgl/lv_draw/lv_draw.o
 *fill*         0x000000000801c4e9        0x3 
 .rodata.seg2.8397
                0x000000000801c4ec        0x2 ././lvgl/lv_draw/lv_draw.o
 *fill*         0x000000000801c4ee        0x2 
 .rodata.seg3.8398
                0x000000000801c4f0        0x3 ././lvgl/lv_draw/lv_draw.o
 *fill*         0x000000000801c4f3        0x1 
 .rodata.seg4.8399
                0x000000000801c4f4        0x4 ././lvgl/lv_draw/lv_draw.o
 .rodata.seg5.8400
                0x000000000801c4f8        0x5 ././lvgl/lv_draw/lv_draw.o
 *fill*         0x000000000801c4fd        0x3 
 .rodata.seg6.8401
                0x000000000801c500        0x6 ././lvgl/lv_draw/lv_draw.o
 *fill*         0x000000000801c506        0x2 
 .rodata.seg7.8402
                0x000000000801c508        0x7 ././lvgl/lv_draw/lv_draw.o
 *fill*         0x000000000801c50f        0x1 
 .rodata.seg8.8403
                0x000000000801c510        0x8 ././lvgl/lv_draw/lv_draw.o
 .rodata.seg_map.8404
                0x000000000801c518       0x20 ././lvgl/lv_draw/lv_draw.o
 .rodata.width_corr_array.8079
                0x000000000801c538       0x41 ././lvgl/lv_draw/lv_draw.o
 *fill*         0x000000000801c579        0x3 
 .rodata        0x000000000801c57c       0x12 ././lvgl/lv_themes/lv_theme_default.o
 *fill*         0x000000000801c58e        0x2 
 .rodata        0x000000000801c590       0x2e ././lvgl/lv_themes/lv_theme_material.o
 *fill*         0x000000000801c5be        0x2 
 .rodata.lv_txt_get_next_line.part.4.str1.4
                0x000000000801c5c0        0x8 ././lvgl/lv_misc/lv_txt.o
 .rodata.lv_fs_get_ext.str1.4
                0x000000000801c5c8        0x1 ././lvgl/lv_misc/lv_fs.o
 .rodata.sin0_90_table
                0x000000000801c5c8       0xb4 ././lvgl/lv_misc/lv_trigo.o
 .rodata.lv_font_dejavu_30_glyph_bitmap
                0x000000000801c67c     0x1590 ././lvgl/lv_misc/lv_fonts/lv_font_dejavu_30.o
 .rodata.lv_font_dejavu_30_glyph_dsc
                0x000000000801dc0c      0x17c ././lvgl/lv_misc/lv_fonts/lv_font_dejavu_30.o
 .rodata.lv_font_dejavu_20_glyph_bitmap
                0x000000000801dd88      0xb90 ././lvgl/lv_misc/lv_fonts/lv_font_dejavu_20.o
 .rodata.lv_font_dejavu_20_glyph_dsc
                0x000000000801e918      0x17c ././lvgl/lv_misc/lv_fonts/lv_font_dejavu_20.o
 .rodata.lv_font_dejavu_10_glyph_bitmap
                0x000000000801ea94      0x3b6 ././lvgl/lv_misc/lv_fonts/lv_font_dejavu_10.o
 *fill*         0x000000000801ee4a        0x2 
 .rodata.lv_font_dejavu_10_glyph_dsc
                0x000000000801ee4c      0x17c ././lvgl/lv_misc/lv_fonts/lv_font_dejavu_10.o
 .rodata.drivers
                0x000000000801efc8       0xd0 ././mew.o
                0x000000000801efc8                drivers
 .rodata.loop_handlers
                0x000000000801f098       0x24 ././mew.o
                0x000000000801f098                loop_handlers
 .rodata.main.str1.4
                0x000000000801f0bc       0x40 ././mew.o
 .rodata.str1.4
                0x000000000801f0fc      0x10f ././mew.o
 *fill*         0x000000000801f20b        0x1 
 .rodata.keycodes_digits
                0x000000000801f20c       0x14 ././app/pwd_generator/mew_passgen.o
 .rodata.keycodes_letter
                0x000000000801f220       0x34 ././app/pwd_generator/mew_passgen.o
 .rodata.keycodes_symbols
                0x000000000801f254       0x16 ././app/pwd_generator/mew_passgen.o
 *fill*         0x000000000801f26a        0x2 
 .rodata.mew_comm_handler.str1.4
                0x000000000801f26c        0x7 ././app/packet_parser/parser.o
                                          0xb (size before relaxing)
 *fill*         0x000000000801f273        0x1 
 .rodata.bus_fault_handler.str1.4
                0x000000000801f274       0x12 ././debug.o
 *fill*         0x000000000801f286        0x2 
 .rodata.hard_fault_handler.str1.4
                0x000000000801f288       0x13 ././debug.o
 *fill*         0x000000000801f29b        0x1 
 .rodata.usage_fault_handler.str1.4
                0x000000000801f29c       0x14 ././debug.o
 .rodata.rcc_hse_16mhz_3v3
                0x000000000801f2b0       0x70 /home/konata/devel/libopencm3/lib/libopencm3_stm32f4.a(rcc.o)
                0x000000000801f2b0                rcc_hse_16mhz_3v3
 .rodata.rcc_hse_12mhz_3v3
                0x000000000801f320       0x70 /home/konata/devel/libopencm3/lib/libopencm3_stm32f4.a(rcc.o)
                0x000000000801f320                rcc_hse_12mhz_3v3
 .rodata.rcc_hse_25mhz_3v3
                0x000000000801f390       0x70 /home/konata/devel/libopencm3/lib/libopencm3_stm32f4.a(rcc.o)
                0x000000000801f390                rcc_hse_25mhz_3v3
 .rodata.rcc_hse_8mhz_3v3
                0x000000000801f400       0x70 /home/konata/devel/libopencm3/lib/libopencm3_stm32f4.a(rcc.o)
                0x000000000801f400                rcc_hse_8mhz_3v3
 .rodata.CSWTCH.24
                0x000000000801f470       0x28 /home/konata/devel/libopencm3/lib/libopencm3_stm32f4.a(usb_standard.o)
 .rodata.CSWTCH.26
                0x000000000801f498       0x30 /home/konata/devel/libopencm3/lib/libopencm3_stm32f4.a(usb_standard.o)
 .rodata.stm32f107_usb_driver
                0x000000000801f4c8       0x34 /home/konata/devel/libopencm3/lib/libopencm3_stm32f4.a(usb_f107.o)
                0x000000000801f4c8                stm32f107_usb_driver
 .rodata._global_impure_ptr
                0x000000000801f4fc        0x4 /home/kaori/devel/stm32/gcc-arm-none-eabi-8-2018-q4-major/bin/../lib/gcc/arm-none-eabi/8.2.1/../../../../arm-none-eabi/lib/thumb/v7e-m+fp/hard/libc_nano.a(lib_a-impure.o)
                0x000000000801f4fc                _global_impure_ptr
                0x000000000801f500                . = ALIGN (0x4)

.glue_7         0x000000000801f500        0x0
 .glue_7        0x000000000801f500        0x0 linker stubs

.glue_7t        0x000000000801f500        0x0
 .glue_7t       0x000000000801f500        0x0 linker stubs

.vfp11_veneer   0x000000000801f500        0x0
 .vfp11_veneer  0x000000000801f500        0x0 linker stubs

.v4_bx          0x000000000801f500        0x0
 .v4_bx         0x000000000801f500        0x0 linker stubs

.iplt           0x000000000801f500        0x0
 .iplt          0x000000000801f500        0x0 ././ui/ui_lhandlers.o

.rel.dyn        0x000000000801f500        0x0
 .rel.iplt      0x000000000801f500        0x0 ././ui/ui_lhandlers.o

.preinit_array  0x000000000801f500        0x0
                0x000000000801f500                . = ALIGN (0x4)
                0x000000000801f500                __preinit_array_start = .
 *(.preinit_array)
                0x000000000801f500                __preinit_array_end = .

.init_array     0x000000000801f500        0x0
                0x000000000801f500                . = ALIGN (0x4)
                0x000000000801f500                __init_array_start = .
 *(SORT_BY_NAME(.init_array.*))
 *(.init_array)
                0x000000000801f500                __init_array_end = .

.fini_array     0x000000000801f500        0x0
                0x000000000801f500                . = ALIGN (0x4)
                0x000000000801f500                __fini_array_start = .
 *(.fini_array)
 *(SORT_BY_NAME(.fini_array.*))
                0x000000000801f500                __fini_array_end = .

.ARM.extab
 *(.ARM.extab*)

.ARM.exidx      0x000000000801f500        0x0
                0x000000000801f500                __exidx_start = .
 *(.ARM.exidx*)
                0x000000000801f500                __exidx_end = .
                0x000000000801f500                . = ALIGN (0x4)
                0x000000000801f500                _etext = .

.data           0x0000000020000000      0x3e8 load address 0x000000000801f500
                0x0000000020000000                _data = .
 *(.data*)
 .data          0x0000000020000000        0x0 ././ui/ui_lhandlers.o
 .data          0x0000000020000000        0x0 ././ui/mew_logo.o
 .data          0x0000000020000000        0x0 ././ui/pinpad.o
 .data._mew_btnm_map
                0x0000000020000000       0x40 ././ui/pinpad.o
                0x0000000020000000                _mew_btnm_map
 .data          0x0000000020000040        0x0 ././drivers/display/ts_tsc2007.o
 .data          0x0000000020000040        0x0 ././drivers/display/display.o
 .data          0x0000000020000040        0x0 ././drivers/bluetooth/bt_usart.o
 .data          0x0000000020000040        0x0 ././drivers/flash/otp_storage.o
 .data          0x0000000020000040        0x0 ././drivers/system/clock.o
 .data          0x0000000020000040        0x0 ././drivers/system/systick.o
 .data          0x0000000020000040        0x0 ././drivers/system/random.o
 .data          0x0000000020000040        0x0 ././drivers/system/system.o
 .data          0x0000000020000040        0x0 ././drivers/spi_flash/w25n01gvzeig.o
 .data          0x0000000020000040        0x0 ././drivers/spi_flash/flash.o
 .data          0x0000000020000040        0x0 ././drivers/duart/duart.o
 .data          0x0000000020000040        0x0 ././drivers/i2c/i2c.o
 .data          0x0000000020000040        0x0 ././drivers/usb/mew_usb_hid.o
 .data.usb_hid_disable
                0x0000000020000040        0x1 ././drivers/usb/mew_usb_hid.o
                0x0000000020000040                usb_hid_disable
 *fill*         0x0000000020000041        0x3 
 .data.usb_strings
                0x0000000020000044        0xc ././drivers/usb/mew_usb_hid.o
 .data          0x0000000020000050        0x0 ././drivers/hw_crypt/aes256.o
 .data.dma2_crypt_in_complete
                0x0000000020000050        0x1 ././drivers/hw_crypt/aes256.o
 .data.dma2_crypt_out_complete
                0x0000000020000051        0x1 ././drivers/hw_crypt/aes256.o
 .data          0x0000000020000052        0x0 ././drivers/hw_crypt/P256-cortex-ecdh.o
 .data          0x0000000020000052        0x0 ././drivers/hw_crypt/sha2_256.o
 .data          0x0000000020000052        0x0 ././lvgl/lv_core/lv_obj.o
 .data          0x0000000020000052        0x0 ././lvgl/lv_core/lv_group.o
 .data          0x0000000020000052        0x0 ././lvgl/lv_core/lv_vdb.o
 *fill*         0x0000000020000052        0x2 
 .data.vdb      0x0000000020000054        0xc ././lvgl/lv_core/lv_vdb.o
 .data.vdb_state
                0x0000000020000060        0x1 ././lvgl/lv_core/lv_vdb.o
 .data          0x0000000020000061        0x0 ././lvgl/lv_core/lv_style.o
 .data          0x0000000020000061        0x0 ././lvgl/lv_core/lv_indev.o
 .data          0x0000000020000061        0x0 ././lvgl/lv_core/lv_refr.o
 .data          0x0000000020000061        0x0 ././lvgl/lv_objx/lv_kb.o
 *fill*         0x0000000020000061        0x3 
 .data.kb_map_lc
                0x0000000020000064       0xb0 ././lvgl/lv_objx/lv_kb.o
 .data.kb_map_num
                0x0000000020000114       0x54 ././lvgl/lv_objx/lv_kb.o
 .data.kb_map_spec
                0x0000000020000168       0xb0 ././lvgl/lv_objx/lv_kb.o
 .data.kb_map_uc
                0x0000000020000218       0xb0 ././lvgl/lv_objx/lv_kb.o
 .data          0x00000000200002c8        0x0 ././lvgl/lv_objx/lv_sw.o
 .data          0x00000000200002c8        0x0 ././lvgl/lv_objx/lv_img.o
 .data          0x00000000200002c8        0x0 ././lvgl/lv_objx/lv_slider.o
 .data          0x00000000200002c8        0x0 ././lvgl/lv_objx/lv_ta.o
 .data          0x00000000200002c8        0x0 ././lvgl/lv_objx/lv_chart.o
 .data          0x00000000200002c8        0x0 ././lvgl/lv_objx/lv_ddlist.o
 .data          0x00000000200002c8        0x0 ././lvgl/lv_objx/lv_cb.o
 .data          0x00000000200002c8        0x0 ././lvgl/lv_objx/lv_mbox.o
 .data          0x00000000200002c8        0x0 ././lvgl/lv_objx/lv_roller.o
 .data          0x00000000200002c8        0x0 ././lvgl/lv_objx/lv_objx_templ.o
 .data          0x00000000200002c8        0x0 ././lvgl/lv_objx/lv_gauge.o
 .data          0x00000000200002c8        0x0 ././lvgl/lv_objx/lv_win.o
 .data          0x00000000200002c8        0x0 ././lvgl/lv_objx/lv_list.o
 .data          0x00000000200002c8        0x0 ././lvgl/lv_objx/lv_tabview.o
 .data.tab_def  0x00000000200002c8        0x4 ././lvgl/lv_objx/lv_tabview.o
 .data          0x00000000200002cc        0x0 ././lvgl/lv_objx/lv_line.o
 .data          0x00000000200002cc        0x0 ././lvgl/lv_objx/lv_btn.o
 .data          0x00000000200002cc        0x0 ././lvgl/lv_objx/lv_label.o
 .data          0x00000000200002cc        0x0 ././lvgl/lv_objx/lv_page.o
 .data          0x00000000200002cc        0x0 ././lvgl/lv_objx/lv_lmeter.o
 .data          0x00000000200002cc        0x0 ././lvgl/lv_objx/lv_led.o
 .data          0x00000000200002cc        0x0 ././lvgl/lv_objx/lv_btnm.o
 .data.lv_btnm_def_map
                0x00000000200002cc       0x1c ././lvgl/lv_objx/lv_btnm.o
 .data          0x00000000200002e8        0x0 ././lvgl/lv_objx/lv_cont.o
 .data          0x00000000200002e8        0x0 ././lvgl/lv_objx/lv_bar.o
 .data          0x00000000200002e8        0x0 ././lvgl/lv_draw/lv_draw.o
 .data          0x00000000200002e8        0x0 ././lvgl/lv_draw/lv_draw_rbasic.o
 .data          0x00000000200002e8        0x0 ././lvgl/lv_draw/lv_draw_vbasic.o
 .data.bpp1_opa_table.6573
                0x00000000200002e8        0x2 ././lvgl/lv_draw/lv_draw_vbasic.o
 *fill*         0x00000000200002ea        0x2 
 .data.bpp2_opa_table.6574
                0x00000000200002ec        0x4 ././lvgl/lv_draw/lv_draw_vbasic.o
 .data.bpp4_opa_table.6575
                0x00000000200002f0       0x10 ././lvgl/lv_draw/lv_draw_vbasic.o
 .data          0x0000000020000300        0x0 ././lvgl/lv_themes/lv_theme_zen.o
 .data          0x0000000020000300        0x0 ././lvgl/lv_themes/lv_theme_night.o
 .data          0x0000000020000300        0x0 ././lvgl/lv_themes/lv_theme.o
 .data          0x0000000020000300        0x0 ././lvgl/lv_themes/lv_theme_default.o
 .data          0x0000000020000300        0x0 ././lvgl/lv_themes/lv_theme_mono.o
 .data          0x0000000020000300        0x0 ././lvgl/lv_themes/lv_theme_alien.o
 .data          0x0000000020000300        0x0 ././lvgl/lv_themes/lv_theme_material.o
 .data          0x0000000020000300        0x0 ././lvgl/lv_themes/lv_theme_templ.o
 .data          0x0000000020000300        0x0 ././lvgl/lv_hal/lv_hal_tick.o
 .data          0x0000000020000300        0x0 ././lvgl/lv_hal/lv_hal_indev.o
 .data          0x0000000020000300        0x0 ././lvgl/lv_hal/lv_hal_disp.o
 .data          0x0000000020000300        0x0 ././lvgl/lv_misc/lv_ll.o
 .data          0x0000000020000300        0x0 ././lvgl/lv_misc/lv_circ.o
 .data          0x0000000020000300        0x0 ././lvgl/lv_misc/lv_txt.o
 .data          0x0000000020000300        0x0 ././lvgl/lv_misc/lv_task.o
 .data          0x0000000020000300        0x0 ././lvgl/lv_misc/lv_math.o
 .data          0x0000000020000300        0x0 ././lvgl/lv_misc/lv_fs.o
 .data          0x0000000020000300        0x0 ././lvgl/lv_misc/lv_templ.o
 .data          0x0000000020000300        0x0 ././lvgl/lv_misc/lv_trigo.o
 .data          0x0000000020000300        0x0 ././lvgl/lv_misc/lv_ufs.o
 .data          0x0000000020000300        0x0 ././lvgl/lv_misc/lv_color.o
 .data          0x0000000020000300        0x0 ././lvgl/lv_misc/lv_anim.o
 .data          0x0000000020000300        0x0 ././lvgl/lv_misc/lv_mem.o
 .data          0x0000000020000300        0x0 ././lvgl/lv_misc/lv_font.o
 .data          0x0000000020000300        0x0 ././lvgl/lv_misc/lv_fonts/lv_font_dejavu_20_cyrillic.o
 .data          0x0000000020000300        0x0 ././lvgl/lv_misc/lv_fonts/lv_font_dejavu_30.o
 .data.lv_font_dejavu_30
                0x0000000020000300       0x28 ././lvgl/lv_misc/lv_fonts/lv_font_dejavu_30.o
                0x0000000020000300                lv_font_dejavu_30
 .data          0x0000000020000328        0x0 ././lvgl/lv_misc/lv_fonts/lv_font_dejavu_30_cyrillic.o
 .data          0x0000000020000328        0x0 ././lvgl/lv_misc/lv_fonts/lv_font_dejavu_10_cyrillic.o
 .data          0x0000000020000328        0x0 ././lvgl/lv_misc/lv_fonts/lv_font_dejavu_10_latin_sup.o
 .data          0x0000000020000328        0x0 ././lvgl/lv_misc/lv_fonts/lv_font_symbol_40.o
 .data          0x0000000020000328        0x0 ././lvgl/lv_misc/lv_fonts/lv_font_symbol_30.o
 .data          0x0000000020000328        0x0 ././lvgl/lv_misc/lv_fonts/lv_font_symbol_20.o
 .data          0x0000000020000328        0x0 ././lvgl/lv_misc/lv_fonts/lv_font_dejavu_30_latin_sup.o
 .data          0x0000000020000328        0x0 ././lvgl/lv_misc/lv_fonts/lv_font_dejavu_40_latin_sup.o
 .data          0x0000000020000328        0x0 ././lvgl/lv_misc/lv_fonts/lv_font_symbol_10.o
 .data          0x0000000020000328        0x0 ././lvgl/lv_misc/lv_fonts/lv_font_dejavu_20_latin_sup.o
 .data          0x0000000020000328        0x0 ././lvgl/lv_misc/lv_fonts/lv_font_dejavu_20.o
 .data.lv_font_dejavu_20
                0x0000000020000328       0x28 ././lvgl/lv_misc/lv_fonts/lv_font_dejavu_20.o
                0x0000000020000328                lv_font_dejavu_20
 .data          0x0000000020000350        0x0 ././lvgl/lv_misc/lv_fonts/lv_font_dejavu_40_cyrillic.o
 .data          0x0000000020000350        0x0 ././lvgl/lv_misc/lv_fonts/lv_font_dejavu_40.o
 .data          0x0000000020000350        0x0 ././lvgl/lv_misc/lv_fonts/lv_font_dejavu_10.o
 .data.lv_font_dejavu_10
                0x0000000020000350       0x28 ././lvgl/lv_misc/lv_fonts/lv_font_dejavu_10.o
                0x0000000020000350                lv_font_dejavu_10
 .data          0x0000000020000378        0x0 ././lvgl/lv_misc/lv_area.o
 .data          0x0000000020000378        0x0 ././mew.o
 .data          0x0000000020000378        0x0 ././app/pwd_generator/mew_passgen.o
 .data          0x0000000020000378        0x0 ././app/pwd_generator/mew_xor_algo.o
 .data          0x0000000020000378        0x0 ././app/packet_parser/parser.o
 .data          0x0000000020000378        0x0 ././debug.o
 .data          0x0000000020000378        0x0 ././drivers/hw_crypt/P256-cortex-m4-ecdh-speedopt-gcc.o
 .data          0x0000000020000378        0x0 /home/konata/devel/libopencm3/lib/libopencm3_stm32f4.a(rcc.o)
 .data.rcc_ahb_frequency
                0x0000000020000378        0x4 /home/konata/devel/libopencm3/lib/libopencm3_stm32f4.a(rcc.o)
                0x0000000020000378                rcc_ahb_frequency
 .data.rcc_apb1_frequency
                0x000000002000037c        0x4 /home/konata/devel/libopencm3/lib/libopencm3_stm32f4.a(rcc.o)
                0x000000002000037c                rcc_apb1_frequency
 .data.rcc_apb2_frequency
                0x0000000020000380        0x4 /home/konata/devel/libopencm3/lib/libopencm3_stm32f4.a(rcc.o)
                0x0000000020000380                rcc_apb2_frequency
 .data          0x0000000020000384        0x0 /home/konata/devel/libopencm3/lib/libopencm3_stm32f4.a(crc_common_all.o)
 .data          0x0000000020000384        0x0 /home/konata/devel/libopencm3/lib/libopencm3_stm32f4.a(dma_common_f24.o)
 .data          0x0000000020000384        0x0 /home/konata/devel/libopencm3/lib/libopencm3_stm32f4.a(gpio_common_all.o)
 .data          0x0000000020000384        0x0 /home/konata/devel/libopencm3/lib/libopencm3_stm32f4.a(gpio_common_f0234.o)
 .data          0x0000000020000384        0x0 /home/konata/devel/libopencm3/lib/libopencm3_stm32f4.a(i2c_common_v1.o)
 .data          0x0000000020000384        0x0 /home/konata/devel/libopencm3/lib/libopencm3_stm32f4.a(spi_common_all.o)
 .data          0x0000000020000384        0x0 /home/konata/devel/libopencm3/lib/libopencm3_stm32f4.a(spi_common_l1f124.o)
 .data          0x0000000020000384        0x0 /home/konata/devel/libopencm3/lib/libopencm3_stm32f4.a(usart_common_all.o)
 .data          0x0000000020000384        0x0 /home/konata/devel/libopencm3/lib/libopencm3_stm32f4.a(usart_common_f124.o)
 .data          0x0000000020000384        0x0 /home/konata/devel/libopencm3/lib/libopencm3_stm32f4.a(flash_common_f234.o)
 .data          0x0000000020000384        0x0 /home/konata/devel/libopencm3/lib/libopencm3_stm32f4.a(flash_common_f24.o)
 .data          0x0000000020000384        0x0 /home/konata/devel/libopencm3/lib/libopencm3_stm32f4.a(exti_common_all.o)
 .data          0x0000000020000384        0x0 /home/konata/devel/libopencm3/lib/libopencm3_stm32f4.a(rcc_common_all.o)
 .data          0x0000000020000384        0x0 /home/konata/devel/libopencm3/lib/libopencm3_stm32f4.a(usb.o)
 .data          0x0000000020000384        0x0 /home/konata/devel/libopencm3/lib/libopencm3_stm32f4.a(usb_standard.o)
 .data          0x0000000020000384        0x0 /home/konata/devel/libopencm3/lib/libopencm3_stm32f4.a(usb_control.o)
 .data          0x0000000020000384        0x0 /home/konata/devel/libopencm3/lib/libopencm3_stm32f4.a(usb_f107.o)
 .data          0x0000000020000384        0x0 /home/konata/devel/libopencm3/lib/libopencm3_stm32f4.a(vector.o)
 .data          0x0000000020000384        0x0 /home/konata/devel/libopencm3/lib/libopencm3_stm32f4.a(systick.o)
 .data          0x0000000020000384        0x0 /home/konata/devel/libopencm3/lib/libopencm3_stm32f4.a(nvic.o)
 .data          0x0000000020000384        0x0 /home/konata/devel/libopencm3/lib/libopencm3_stm32f4.a(pwr.o)
 .data          0x0000000020000384        0x0 /home/konata/devel/libopencm3/lib/libopencm3_stm32f4.a(usb_fx07_common.o)
 .data          0x0000000020000384        0x0 /home/kaori/devel/stm32/gcc-arm-none-eabi-8-2018-q4-major/bin/../lib/gcc/arm-none-eabi/8.2.1/../../../../arm-none-eabi/lib/thumb/v7e-m+fp/hard/libc_nano.a(lib_a-malloc.o)
 .data          0x0000000020000384        0x0 /home/kaori/devel/stm32/gcc-arm-none-eabi-8-2018-q4-major/bin/../lib/gcc/arm-none-eabi/8.2.1/../../../../arm-none-eabi/lib/thumb/v7e-m+fp/hard/libc_nano.a(lib_a-memcpy-stub.o)
 .data          0x0000000020000384        0x0 /home/kaori/devel/stm32/gcc-arm-none-eabi-8-2018-q4-major/bin/../lib/gcc/arm-none-eabi/8.2.1/../../../../arm-none-eabi/lib/thumb/v7e-m+fp/hard/libc_nano.a(lib_a-memset.o)
 .data          0x0000000020000384        0x0 /home/kaori/devel/stm32/gcc-arm-none-eabi-8-2018-q4-major/bin/../lib/gcc/arm-none-eabi/8.2.1/../../../../arm-none-eabi/lib/thumb/v7e-m+fp/hard/libc_nano.a(lib_a-nano-freer.o)
 .data          0x0000000020000384        0x0 /home/kaori/devel/stm32/gcc-arm-none-eabi-8-2018-q4-major/bin/../lib/gcc/arm-none-eabi/8.2.1/../../../../arm-none-eabi/lib/thumb/v7e-m+fp/hard/libc_nano.a(lib_a-nano-mallocr.o)
 .data          0x0000000020000384        0x0 /home/kaori/devel/stm32/gcc-arm-none-eabi-8-2018-q4-major/bin/../lib/gcc/arm-none-eabi/8.2.1/../../../../arm-none-eabi/lib/thumb/v7e-m+fp/hard/libc_nano.a(lib_a-sbrkr.o)
 .data          0x0000000020000384        0x0 /home/kaori/devel/stm32/gcc-arm-none-eabi-8-2018-q4-major/bin/../lib/gcc/arm-none-eabi/8.2.1/../../../../arm-none-eabi/lib/thumb/v7e-m+fp/hard/libc_nano.a(lib_a-strchr.o)
 .data          0x0000000020000384        0x0 /home/kaori/devel/stm32/gcc-arm-none-eabi-8-2018-q4-major/bin/../lib/gcc/arm-none-eabi/8.2.1/../../../../arm-none-eabi/lib/thumb/v7e-m+fp/hard/libc_nano.a(lib_a-strcmp.o)
 .data          0x0000000020000384        0x0 /home/kaori/devel/stm32/gcc-arm-none-eabi-8-2018-q4-major/bin/../lib/gcc/arm-none-eabi/8.2.1/../../../../arm-none-eabi/lib/thumb/v7e-m+fp/hard/libc_nano.a(lib_a-strcpy.o)
 .data          0x0000000020000384        0x0 /home/kaori/devel/stm32/gcc-arm-none-eabi-8-2018-q4-major/bin/../lib/gcc/arm-none-eabi/8.2.1/../../../../arm-none-eabi/lib/thumb/v7e-m+fp/hard/libc_nano.a(lib_a-strlen.o)
 .data          0x0000000020000384        0x0 /home/kaori/devel/stm32/gcc-arm-none-eabi-8-2018-q4-major/bin/../lib/gcc/arm-none-eabi/8.2.1/../../../../arm-none-eabi/lib/thumb/v7e-m+fp/hard/libc_nano.a(lib_a-strstr.o)
 .data          0x0000000020000384        0x0 /home/kaori/devel/stm32/gcc-arm-none-eabi-8-2018-q4-major/bin/../lib/gcc/arm-none-eabi/8.2.1/../../../../arm-none-eabi/lib/thumb/v7e-m+fp/hard/libc_nano.a(lib_a-impure.o)
 .data._impure_ptr
                0x0000000020000384        0x4 /home/kaori/devel/stm32/gcc-arm-none-eabi-8-2018-q4-major/bin/../lib/gcc/arm-none-eabi/8.2.1/../../../../arm-none-eabi/lib/thumb/v7e-m+fp/hard/libc_nano.a(lib_a-impure.o)
                0x0000000020000384                _impure_ptr
 .data.impure_data
                0x0000000020000388       0x60 /home/kaori/devel/stm32/gcc-arm-none-eabi-8-2018-q4-major/bin/../lib/gcc/arm-none-eabi/8.2.1/../../../../arm-none-eabi/lib/thumb/v7e-m+fp/hard/libc_nano.a(lib_a-impure.o)
 .data          0x00000000200003e8        0x0 /home/kaori/devel/stm32/gcc-arm-none-eabi-8-2018-q4-major/bin/../lib/gcc/arm-none-eabi/8.2.1/../../../../arm-none-eabi/lib/thumb/v7e-m+fp/hard/libc_nano.a(lib_a-mlock.o)
 .data          0x00000000200003e8        0x0 /home/kaori/devel/stm32/gcc-arm-none-eabi-8-2018-q4-major/bin/../lib/gcc/arm-none-eabi/8.2.1/../../../../arm-none-eabi/lib/thumb/v7e-m+fp/hard/libc_nano.a(lib_a-reent.o)
 .data          0x00000000200003e8        0x0 /home/kaori/devel/stm32/gcc-arm-none-eabi-8-2018-q4-major/bin/../lib/gcc/arm-none-eabi/8.2.1/../../../../arm-none-eabi/lib/thumb/v7e-m+fp/hard/libc_nano.a(lib_a-lock.o)
 .data          0x00000000200003e8        0x0 /home/kaori/devel/stm32/gcc-arm-none-eabi-8-2018-q4-major/bin/../lib/gcc/arm-none-eabi/8.2.1/../../../../arm-none-eabi/lib/thumb/v7e-m+fp/hard/libnosys.a(sbrk.o)
                0x00000000200003e8                . = ALIGN (0x4)
                0x00000000200003e8                _edata = .
                0x000000000801f500                _data_loadaddr = LOADADDR (.data)

.igot.plt       0x00000000200003e8        0x0 load address 0x000000000801f8e8
 .igot.plt      0x00000000200003e8        0x0 ././ui/ui_lhandlers.o

.bss            0x00000000200003e8     0xfbfc load address 0x000000000801f8e8
 *(.bss*)
 .bss           0x00000000200003e8        0x0 ././ui/ui_lhandlers.o
 .bss._mew_lvgl_lhandler_time
                0x00000000200003e8        0x4 ././ui/ui_lhandlers.o
 .bss           0x00000000200003ec        0x0 ././ui/mew_logo.o
 .bss           0x00000000200003ec        0x0 ././ui/pinpad.o
 .bss._mew_counter
                0x00000000200003ec        0x4 ././ui/pinpad.o
 .bss._mew_label_pincode
                0x00000000200003f0        0x4 ././ui/pinpad.o
 .bss._mew_pincode
                0x00000000200003f4        0x8 ././ui/pinpad.o
 .bss._mew_pincode_disp
                0x00000000200003fc        0x8 ././ui/pinpad.o
 .bss.style_txt.10052
                0x0000000020000404       0x3c ././ui/pinpad.o
 .bss.style_txt2.10055
                0x0000000020000440       0x3c ././ui/pinpad.o
 .bss           0x000000002000047c        0x0 ././drivers/display/ts_tsc2007.o
 .bss._mew_ts_isr
                0x000000002000047c        0x1 ././drivers/display/ts_tsc2007.o
 .bss           0x000000002000047d        0x0 ././drivers/display/display.o
 .bss._mew_dma_rx_state
                0x000000002000047d        0x1 ././drivers/display/display.o
 .bss           0x000000002000047e        0x0 ././drivers/bluetooth/bt_usart.o
 *fill*         0x000000002000047e        0x2 
 .bss._mew_bt_buffer
                0x0000000020000480      0x100 ././drivers/bluetooth/bt_usart.o
 .bss._mew_bt_count
                0x0000000020000580        0x4 ././drivers/bluetooth/bt_usart.o
 .bss._mew_bt_timer
                0x0000000020000584        0x4 ././drivers/bluetooth/bt_usart.o
 .bss._mew_comm_state
                0x0000000020000588        0x1 ././drivers/bluetooth/bt_usart.o
 .bss._mew_dma_tx_state
                0x0000000020000589        0x1 ././drivers/bluetooth/bt_usart.o
 .bss           0x000000002000058a        0x0 ././drivers/flash/otp_storage.o
 .bss           0x000000002000058a        0x0 ././drivers/system/clock.o
 .bss           0x000000002000058a        0x0 ././drivers/system/systick.o
 *fill*         0x000000002000058a        0x2 
 .bss.systick_millis
                0x000000002000058c        0x4 ././drivers/system/systick.o
 .bss           0x0000000020000590        0x0 ././drivers/system/random.o
 .bss._mew_last_random_value
                0x0000000020000590        0x4 ././drivers/system/random.o
 .bss           0x0000000020000594        0x0 ././drivers/system/system.o
 .bss           0x0000000020000594        0x0 ././drivers/spi_flash/w25n01gvzeig.o
 .bss._mew_flash_buffer
                0x0000000020000594      0x800 ././drivers/spi_flash/w25n01gvzeig.o
                0x0000000020000594                _mew_flash_buffer
 .bss           0x0000000020000d94        0x0 ././drivers/spi_flash/flash.o
 .bss           0x0000000020000d94        0x0 ././drivers/duart/duart.o
 .bss._mew_duart_state
                0x0000000020000d94        0x4 ././drivers/duart/duart.o
 .bss           0x0000000020000d98        0x0 ././drivers/i2c/i2c.o
 .bss           0x0000000020000d98        0x0 ././drivers/usb/mew_usb_hid.o
 .bss.mew_hid_usbd_dev
                0x0000000020000d98        0x4 ././drivers/usb/mew_usb_hid.o
                0x0000000020000d98                mew_hid_usbd_dev
 .bss.usbd_control_buffer
                0x0000000020000d9c       0x80 ././drivers/usb/mew_usb_hid.o
                0x0000000020000d9c                usbd_control_buffer
 .bss           0x0000000020000e1c        0x0 ././drivers/hw_crypt/aes256.o
 .bss           0x0000000020000e1c        0x0 ././drivers/hw_crypt/P256-cortex-ecdh.o
 .bss.private_key
                0x0000000020000e1c       0x20 ././drivers/hw_crypt/P256-cortex-ecdh.o
 .bss.result_my_public_point
                0x0000000020000e3c       0x40 ././drivers/hw_crypt/P256-cortex-ecdh.o
 .bss           0x0000000020000e7c        0x0 ././drivers/hw_crypt/sha2_256.o
 .bss           0x0000000020000e7c        0x0 ././lvgl/lv_core/lv_obj.o
 .bss.act_scr   0x0000000020000e7c        0x4 ././lvgl/lv_core/lv_obj.o
 .bss.scr_ll    0x0000000020000e80        0xc ././lvgl/lv_core/lv_obj.o
 .bss.sys_layer
                0x0000000020000e8c        0x4 ././lvgl/lv_core/lv_obj.o
 .bss.top_layer
                0x0000000020000e90        0x4 ././lvgl/lv_core/lv_obj.o
 .bss           0x0000000020000e94        0x0 ././lvgl/lv_core/lv_group.o
 .bss           0x0000000020000e94        0x0 ././lvgl/lv_core/lv_vdb.o
 .bss.vdb_buf   0x0000000020000e94     0xc800 ././lvgl/lv_core/lv_vdb.o
 .bss           0x000000002000d694        0x0 ././lvgl/lv_core/lv_style.o
 .bss.lv_style_btn_ina
                0x000000002000d694       0x3c ././lvgl/lv_core/lv_style.o
                0x000000002000d694                lv_style_btn_ina
 .bss.lv_style_btn_pr
                0x000000002000d6d0       0x3c ././lvgl/lv_core/lv_style.o
                0x000000002000d6d0                lv_style_btn_pr
 .bss.lv_style_btn_rel
                0x000000002000d70c       0x3c ././lvgl/lv_core/lv_style.o
                0x000000002000d70c                lv_style_btn_rel
 .bss.lv_style_btn_tgl_pr
                0x000000002000d748       0x3c ././lvgl/lv_core/lv_style.o
                0x000000002000d748                lv_style_btn_tgl_pr
 .bss.lv_style_btn_tgl_rel
                0x000000002000d784       0x3c ././lvgl/lv_core/lv_style.o
                0x000000002000d784                lv_style_btn_tgl_rel
 .bss.lv_style_plain
                0x000000002000d7c0       0x3c ././lvgl/lv_core/lv_style.o
                0x000000002000d7c0                lv_style_plain
 .bss.lv_style_plain_color
                0x000000002000d7fc       0x3c ././lvgl/lv_core/lv_style.o
                0x000000002000d7fc                lv_style_plain_color
 .bss.lv_style_pretty
                0x000000002000d838       0x3c ././lvgl/lv_core/lv_style.o
                0x000000002000d838                lv_style_pretty
 .bss.lv_style_pretty_color
                0x000000002000d874       0x3c ././lvgl/lv_core/lv_style.o
                0x000000002000d874                lv_style_pretty_color
 .bss.lv_style_scr
                0x000000002000d8b0       0x3c ././lvgl/lv_core/lv_style.o
                0x000000002000d8b0                lv_style_scr
 .bss.lv_style_transp
                0x000000002000d8ec       0x3c ././lvgl/lv_core/lv_style.o
                0x000000002000d8ec                lv_style_transp
 .bss.lv_style_transp_fit
                0x000000002000d928       0x3c ././lvgl/lv_core/lv_style.o
                0x000000002000d928                lv_style_transp_fit
 .bss.lv_style_transp_tight
                0x000000002000d964       0x3c ././lvgl/lv_core/lv_style.o
                0x000000002000d964                lv_style_transp_tight
 .bss           0x000000002000d9a0        0x0 ././lvgl/lv_core/lv_indev.o
 .bss.indev_act
                0x000000002000d9a0        0x4 ././lvgl/lv_core/lv_indev.o
 .bss           0x000000002000d9a4        0x0 ././lvgl/lv_core/lv_refr.o
 .bss.inv_buf   0x000000002000d9a4      0x140 ././lvgl/lv_core/lv_refr.o
 .bss.inv_buf_p
                0x000000002000dae4        0x2 ././lvgl/lv_core/lv_refr.o
 *fill*         0x000000002000dae6        0x2 
 .bss.monitor_cb
                0x000000002000dae8        0x4 ././lvgl/lv_core/lv_refr.o
 .bss.px_num    0x000000002000daec        0x4 ././lvgl/lv_core/lv_refr.o
 .bss.round_cb  0x000000002000daf0        0x4 ././lvgl/lv_core/lv_refr.o
 .bss           0x000000002000daf4        0x0 ././lvgl/lv_objx/lv_kb.o
 .bss.ancestor_signal
                0x000000002000daf4        0x4 ././lvgl/lv_objx/lv_kb.o
 .bss           0x000000002000daf8        0x0 ././lvgl/lv_objx/lv_sw.o
 .bss.ancestor_signal
                0x000000002000daf8        0x4 ././lvgl/lv_objx/lv_sw.o
 .bss           0x000000002000dafc        0x0 ././lvgl/lv_objx/lv_img.o
 .bss.ancestor_signal
                0x000000002000dafc        0x4 ././lvgl/lv_objx/lv_img.o
 .bss           0x000000002000db00        0x0 ././lvgl/lv_objx/lv_slider.o
 .bss.ancestor_design_f
                0x000000002000db00        0x4 ././lvgl/lv_objx/lv_slider.o
 .bss.ancestor_signal
                0x000000002000db04        0x4 ././lvgl/lv_objx/lv_slider.o
 .bss           0x000000002000db08        0x0 ././lvgl/lv_objx/lv_ta.o
 .bss.ancestor_design
                0x000000002000db08        0x4 ././lvgl/lv_objx/lv_ta.o
 .bss.ancestor_signal
                0x000000002000db0c        0x4 ././lvgl/lv_objx/lv_ta.o
 .bss.scrl_design
                0x000000002000db10        0x4 ././lvgl/lv_objx/lv_ta.o
 .bss.scrl_signal
                0x000000002000db14        0x4 ././lvgl/lv_objx/lv_ta.o
 .bss           0x000000002000db18        0x0 ././lvgl/lv_objx/lv_chart.o
 .bss.ancestor_design_f
                0x000000002000db18        0x4 ././lvgl/lv_objx/lv_chart.o
 .bss.ancestor_signal
                0x000000002000db1c        0x4 ././lvgl/lv_objx/lv_chart.o
 .bss           0x000000002000db20        0x0 ././lvgl/lv_objx/lv_ddlist.o
 .bss.ancestor_design
                0x000000002000db20        0x4 ././lvgl/lv_objx/lv_ddlist.o
 .bss.ancestor_scrl_signal
                0x000000002000db24        0x4 ././lvgl/lv_objx/lv_ddlist.o
 .bss.ancestor_signal
                0x000000002000db28        0x4 ././lvgl/lv_objx/lv_ddlist.o
 .bss           0x000000002000db2c        0x0 ././lvgl/lv_objx/lv_cb.o
 .bss.ancestor_bg_design
                0x000000002000db2c        0x4 ././lvgl/lv_objx/lv_cb.o
 .bss.ancestor_bullet_design
                0x000000002000db30        0x4 ././lvgl/lv_objx/lv_cb.o
 .bss.ancestor_signal
                0x000000002000db34        0x4 ././lvgl/lv_objx/lv_cb.o
 .bss           0x000000002000db38        0x0 ././lvgl/lv_objx/lv_mbox.o
 .bss.ancestor_signal
                0x000000002000db38        0x4 ././lvgl/lv_objx/lv_mbox.o
 .bss           0x000000002000db3c        0x0 ././lvgl/lv_objx/lv_roller.o
 .bss.ancestor_scrl_signal
                0x000000002000db3c        0x4 ././lvgl/lv_objx/lv_roller.o
 .bss.ancestor_signal
                0x000000002000db40        0x4 ././lvgl/lv_objx/lv_roller.o
 .bss           0x000000002000db44        0x0 ././lvgl/lv_objx/lv_objx_templ.o
 .bss           0x000000002000db44        0x0 ././lvgl/lv_objx/lv_gauge.o
 .bss.ancestor_design
                0x000000002000db44        0x4 ././lvgl/lv_objx/lv_gauge.o
 .bss.ancestor_signal
                0x000000002000db48        0x4 ././lvgl/lv_objx/lv_gauge.o
 .bss           0x000000002000db4c        0x0 ././lvgl/lv_objx/lv_win.o
 .bss.ancestor_signal
                0x000000002000db4c        0x4 ././lvgl/lv_objx/lv_win.o
 .bss           0x000000002000db50        0x0 ././lvgl/lv_objx/lv_list.o
 .bss.ancestor_signal
                0x000000002000db50        0x4 ././lvgl/lv_objx/lv_list.o
 .bss.btn_signal
                0x000000002000db54        0x4 ././lvgl/lv_objx/lv_list.o
 .bss.img_signal
                0x000000002000db58        0x4 ././lvgl/lv_objx/lv_list.o
 .bss.label_signal
                0x000000002000db5c        0x4 ././lvgl/lv_objx/lv_list.o
 .bss           0x000000002000db60        0x0 ././lvgl/lv_objx/lv_tabview.o
 .bss.ancestor_signal
                0x000000002000db60        0x4 ././lvgl/lv_objx/lv_tabview.o
 .bss.page_scrl_signal
                0x000000002000db64        0x4 ././lvgl/lv_objx/lv_tabview.o
 .bss.page_signal
                0x000000002000db68        0x4 ././lvgl/lv_objx/lv_tabview.o
 .bss           0x000000002000db6c        0x0 ././lvgl/lv_objx/lv_line.o
 .bss.ancestor_signal
                0x000000002000db6c        0x4 ././lvgl/lv_objx/lv_line.o
 .bss           0x000000002000db70        0x0 ././lvgl/lv_objx/lv_btn.o
 .bss.ancestor_signal
                0x000000002000db70        0x4 ././lvgl/lv_objx/lv_btn.o
 .bss           0x000000002000db74        0x0 ././lvgl/lv_objx/lv_label.o
 .bss.ancestor_signal
                0x000000002000db74        0x4 ././lvgl/lv_objx/lv_label.o
 .bss           0x000000002000db78        0x0 ././lvgl/lv_objx/lv_page.o
 .bss.ancestor_design
                0x000000002000db78        0x4 ././lvgl/lv_objx/lv_page.o
 .bss.ancestor_signal
                0x000000002000db7c        0x4 ././lvgl/lv_objx/lv_page.o
 .bss           0x000000002000db80        0x0 ././lvgl/lv_objx/lv_lmeter.o
 .bss.ancestor_signal
                0x000000002000db80        0x4 ././lvgl/lv_objx/lv_lmeter.o
 .bss           0x000000002000db84        0x0 ././lvgl/lv_objx/lv_led.o
 .bss.ancestor_design_f
                0x000000002000db84        0x4 ././lvgl/lv_objx/lv_led.o
 .bss.ancestor_signal
                0x000000002000db88        0x4 ././lvgl/lv_objx/lv_led.o
 .bss           0x000000002000db8c        0x0 ././lvgl/lv_objx/lv_btnm.o
 .bss.ancestor_design_f
                0x000000002000db8c        0x4 ././lvgl/lv_objx/lv_btnm.o
 .bss.ancestor_signal
                0x000000002000db90        0x4 ././lvgl/lv_objx/lv_btnm.o
 .bss           0x000000002000db94        0x0 ././lvgl/lv_objx/lv_cont.o
 .bss.ancestor_signal
                0x000000002000db94        0x4 ././lvgl/lv_objx/lv_cont.o
 .bss           0x000000002000db98        0x0 ././lvgl/lv_objx/lv_bar.o
 .bss.ancestor_design_f
                0x000000002000db98        0x4 ././lvgl/lv_objx/lv_bar.o
 .bss.ancestor_signal
                0x000000002000db9c        0x4 ././lvgl/lv_objx/lv_bar.o
 .bss           0x000000002000dba0        0x0 ././lvgl/lv_draw/lv_draw.o
 .bss           0x000000002000dba0        0x0 ././lvgl/lv_draw/lv_draw_rbasic.o
 .bss           0x000000002000dba0        0x0 ././lvgl/lv_draw/lv_draw_vbasic.o
 .bss           0x000000002000dba0        0x0 ././lvgl/lv_themes/lv_theme_zen.o
 .bss           0x000000002000dba0        0x0 ././lvgl/lv_themes/lv_theme_night.o
 .bss           0x000000002000dba0        0x0 ././lvgl/lv_themes/lv_theme.o
 .bss.current_theme
                0x000000002000dba0        0x4 ././lvgl/lv_themes/lv_theme.o
 .bss           0x000000002000dba4        0x0 ././lvgl/lv_themes/lv_theme_default.o
 .bss.def       0x000000002000dba4       0x3c ././lvgl/lv_themes/lv_theme_default.o
 .bss.gauge.6482
                0x000000002000dbe0       0x3c ././lvgl/lv_themes/lv_theme_default.o
 .bss.label_hint
                0x000000002000dc1c       0x3c ././lvgl/lv_themes/lv_theme_default.o
 .bss.label_prim
                0x000000002000dc58       0x3c ././lvgl/lv_themes/lv_theme_default.o
 .bss.label_sec
                0x000000002000dc94       0x3c ././lvgl/lv_themes/lv_theme_default.o
 .bss.led.6463  0x000000002000dcd0       0x3c ././lvgl/lv_themes/lv_theme_default.o
 .bss.lmeter    0x000000002000dd0c       0x3c ././lvgl/lv_themes/lv_theme_default.o
 .bss.plain_bordered
                0x000000002000dd48       0x3c ././lvgl/lv_themes/lv_theme_default.o
 .bss.sb        0x000000002000dd84       0x3c ././lvgl/lv_themes/lv_theme_default.o
 .bss.slider_bg
                0x000000002000ddc0       0x3c ././lvgl/lv_themes/lv_theme_default.o
 .bss.sw_bg     0x000000002000ddfc       0x3c ././lvgl/lv_themes/lv_theme_default.o
 .bss.theme     0x000000002000de38      0x14c ././lvgl/lv_themes/lv_theme_default.o
 .bss           0x000000002000df84        0x0 ././lvgl/lv_themes/lv_theme_mono.o
 .bss           0x000000002000df84        0x0 ././lvgl/lv_themes/lv_theme_alien.o
 .bss           0x000000002000df84        0x0 ././lvgl/lv_themes/lv_theme_material.o
 .bss._font     0x000000002000df84        0x4 ././lvgl/lv_themes/lv_theme_material.o
 .bss._hue      0x000000002000df88        0x2 ././lvgl/lv_themes/lv_theme_material.o
 *fill*         0x000000002000df8a        0x2 
 .bss.bar_bg.6481
                0x000000002000df8c       0x3c ././lvgl/lv_themes/lv_theme_material.o
 .bss.bar_indic.6482
                0x000000002000dfc8       0x3c ././lvgl/lv_themes/lv_theme_material.o
 .bss.bg.6437   0x000000002000e004       0x3c ././lvgl/lv_themes/lv_theme_material.o
 .bss.bg.6523   0x000000002000e040       0x3c ././lvgl/lv_themes/lv_theme_material.o
 .bss.bg.6565   0x000000002000e07c       0x3c ././lvgl/lv_themes/lv_theme_material.o
 .bss.btn_bg.6576
                0x000000002000e0b8       0x3c ././lvgl/lv_themes/lv_theme_material.o
 .bss.def       0x000000002000e0f4       0x3c ././lvgl/lv_themes/lv_theme_material.o
 .bss.gauge.6505
                0x000000002000e130       0x3c ././lvgl/lv_themes/lv_theme_material.o
 .bss.header.6591
                0x000000002000e16c       0x3c ././lvgl/lv_themes/lv_theme_material.o
 .bss.hint.6465
                0x000000002000e1a8       0x3c ././lvgl/lv_themes/lv_theme_material.o
 .bss.img_dark.6470
                0x000000002000e1e4       0x3c ././lvgl/lv_themes/lv_theme_material.o
 .bss.img_light.6469
                0x000000002000e220       0x3c ././lvgl/lv_themes/lv_theme_material.o
 .bss.ina.6457  0x000000002000e25c       0x3c ././lvgl/lv_themes/lv_theme_material.o
 .bss.ina.6518  0x000000002000e298       0x3c ././lvgl/lv_themes/lv_theme_material.o
 .bss.ina.6528  0x000000002000e2d4       0x3c ././lvgl/lv_themes/lv_theme_material.o
 .bss.ina.6558  0x000000002000e310       0x3c ././lvgl/lv_themes/lv_theme_material.o
 .bss.indic.6575
                0x000000002000e34c       0x3c ././lvgl/lv_themes/lv_theme_material.o
 .bss.knob.6486
                0x000000002000e388       0x3c ././lvgl/lv_themes/lv_theme_material.o
 .bss.led.6477  0x000000002000e3c4       0x3c ././lvgl/lv_themes/lv_theme_material.o
 .bss.list_bg.6553
                0x000000002000e400       0x3c ././lvgl/lv_themes/lv_theme_material.o
 .bss.lmeter.6500
                0x000000002000e43c       0x3c ././lvgl/lv_themes/lv_theme_material.o
 .bss.oneline.6547
                0x000000002000e478       0x3c ././lvgl/lv_themes/lv_theme_material.o
 .bss.panel.6438
                0x000000002000e4b4       0x3c ././lvgl/lv_themes/lv_theme_material.o
 .bss.pr.6454   0x000000002000e4f0       0x3c ././lvgl/lv_themes/lv_theme_material.o
 .bss.pr.6515   0x000000002000e52c       0x3c ././lvgl/lv_themes/lv_theme_material.o
 .bss.pr.6525   0x000000002000e568       0x3c ././lvgl/lv_themes/lv_theme_material.o
 .bss.pr.6539   0x000000002000e5a4       0x3c ././lvgl/lv_themes/lv_theme_material.o
 .bss.pr.6555   0x000000002000e5e0       0x3c ././lvgl/lv_themes/lv_theme_material.o
 .bss.pr.6578   0x000000002000e61c       0x3c ././lvgl/lv_themes/lv_theme_material.o
 .bss.pr.6592   0x000000002000e658       0x3c ././lvgl/lv_themes/lv_theme_material.o
 .bss.prim.6463
                0x000000002000e694       0x3c ././lvgl/lv_themes/lv_theme_material.o
 .bss.rel.6453  0x000000002000e6d0       0x3c ././lvgl/lv_themes/lv_theme_material.o
 .bss.rel.6514  0x000000002000e70c       0x3c ././lvgl/lv_themes/lv_theme_material.o
 .bss.rel.6524  0x000000002000e748       0x3c ././lvgl/lv_themes/lv_theme_material.o
 .bss.rel.6535  0x000000002000e784       0x3c ././lvgl/lv_themes/lv_theme_material.o
 .bss.rel.6540  0x000000002000e7c0       0x3c ././lvgl/lv_themes/lv_theme_material.o
 .bss.rel.6554  0x000000002000e7fc       0x3c ././lvgl/lv_themes/lv_theme_material.o
 .bss.rel.6577  0x000000002000e838       0x3c ././lvgl/lv_themes/lv_theme_material.o
 .bss.roller_bg.6570
                0x000000002000e874       0x3c ././lvgl/lv_themes/lv_theme_material.o
 .bss.roller_sel.6571
                0x000000002000e8b0       0x3c ././lvgl/lv_themes/lv_theme_material.o
 .bss.sb        0x000000002000e8ec       0x3c ././lvgl/lv_themes/lv_theme_material.o
 .bss.sec.6464  0x000000002000e928       0x3c ././lvgl/lv_themes/lv_theme_material.o
 .bss.sel.6566  0x000000002000e964       0x3c ././lvgl/lv_themes/lv_theme_material.o
 .bss.sw_bg.6490
                0x000000002000e9a0       0x3c ././lvgl/lv_themes/lv_theme_material.o
 .bss.sw_indic.6491
                0x000000002000e9dc       0x3c ././lvgl/lv_themes/lv_theme_material.o
 .bss.sw_knob_off.6492
                0x000000002000ea18       0x3c ././lvgl/lv_themes/lv_theme_material.o
 .bss.sw_knob_on.6493
                0x000000002000ea54       0x3c ././lvgl/lv_themes/lv_theme_material.o
 .bss.tgl_pr.6456
                0x000000002000ea90       0x3c ././lvgl/lv_themes/lv_theme_material.o
 .bss.tgl_pr.6517
                0x000000002000eacc       0x3c ././lvgl/lv_themes/lv_theme_material.o
 .bss.tgl_pr.6527
                0x000000002000eb08       0x3c ././lvgl/lv_themes/lv_theme_material.o
 .bss.tgl_pr.6557
                0x000000002000eb44       0x3c ././lvgl/lv_themes/lv_theme_material.o
 .bss.tgl_pr.6580
                0x000000002000eb80       0x3c ././lvgl/lv_themes/lv_theme_material.o
 .bss.tgl_rel.6455
                0x000000002000ebbc       0x3c ././lvgl/lv_themes/lv_theme_material.o
 .bss.tgl_rel.6516
                0x000000002000ebf8       0x3c ././lvgl/lv_themes/lv_theme_material.o
 .bss.tgl_rel.6526
                0x000000002000ec34       0x3c ././lvgl/lv_themes/lv_theme_material.o
 .bss.tgl_rel.6556
                0x000000002000ec70       0x3c ././lvgl/lv_themes/lv_theme_material.o
 .bss.tgl_rel.6579
                0x000000002000ecac       0x3c ././lvgl/lv_themes/lv_theme_material.o
 .bss.theme     0x000000002000ece8      0x14c ././lvgl/lv_themes/lv_theme_material.o
 .bss           0x000000002000ee34        0x0 ././lvgl/lv_themes/lv_theme_templ.o
 .bss           0x000000002000ee34        0x0 ././lvgl/lv_hal/lv_hal_tick.o
 .bss.sys_time  0x000000002000ee34        0x4 ././lvgl/lv_hal/lv_hal_tick.o
 .bss.tick_irq_flag
                0x000000002000ee38        0x1 ././lvgl/lv_hal/lv_hal_tick.o
 .bss           0x000000002000ee39        0x0 ././lvgl/lv_hal/lv_hal_indev.o
 *fill*         0x000000002000ee39        0x3 
 .bss.indev_list
                0x000000002000ee3c        0x4 ././lvgl/lv_hal/lv_hal_indev.o
 .bss           0x000000002000ee40        0x0 ././lvgl/lv_hal/lv_hal_disp.o
 .bss.active    0x000000002000ee40        0x4 ././lvgl/lv_hal/lv_hal_disp.o
 .bss.disp_list
                0x000000002000ee44        0x4 ././lvgl/lv_hal/lv_hal_disp.o
 .bss           0x000000002000ee48        0x0 ././lvgl/lv_misc/lv_ll.o
 .bss           0x000000002000ee48        0x0 ././lvgl/lv_misc/lv_circ.o
 .bss           0x000000002000ee48        0x0 ././lvgl/lv_misc/lv_txt.o
 .bss           0x000000002000ee48        0x0 ././lvgl/lv_misc/lv_task.o
 .bss.busy_time.5685
                0x000000002000ee48        0x4 ././lvgl/lv_misc/lv_task.o
 .bss.handler_start.5684
                0x000000002000ee4c        0x4 ././lvgl/lv_misc/lv_task.o
 .bss.idle_last
                0x000000002000ee50        0x1 ././lvgl/lv_misc/lv_task.o
 *fill*         0x000000002000ee51        0x3 
 .bss.idle_period_start.5683
                0x000000002000ee54        0x4 ././lvgl/lv_misc/lv_task.o
 .bss.lv_task_ll
                0x000000002000ee58        0xc ././lvgl/lv_misc/lv_task.o
 .bss.lv_task_run
                0x000000002000ee64        0x1 ././lvgl/lv_misc/lv_task.o
 .bss           0x000000002000ee65        0x0 ././lvgl/lv_misc/lv_math.o
 .bss           0x000000002000ee65        0x0 ././lvgl/lv_misc/lv_fs.o
 *fill*         0x000000002000ee65        0x3 
 .bss.drv_ll    0x000000002000ee68        0xc ././lvgl/lv_misc/lv_fs.o
 .bss           0x000000002000ee74        0x0 ././lvgl/lv_misc/lv_templ.o
 .bss           0x000000002000ee74        0x0 ././lvgl/lv_misc/lv_trigo.o
 .bss           0x000000002000ee74        0x0 ././lvgl/lv_misc/lv_ufs.o
 .bss.file_ll   0x000000002000ee74        0xc ././lvgl/lv_misc/lv_ufs.o
 .bss.inited    0x000000002000ee80        0x1 ././lvgl/lv_misc/lv_ufs.o
 .bss           0x000000002000ee81        0x0 ././lvgl/lv_misc/lv_color.o
 .bss           0x000000002000ee81        0x0 ././lvgl/lv_misc/lv_anim.o
 *fill*         0x000000002000ee81        0x3 
 .bss.anim_ll   0x000000002000ee84        0xc ././lvgl/lv_misc/lv_anim.o
 .bss.last_task_run
                0x000000002000ee90        0x4 ././lvgl/lv_misc/lv_anim.o
 .bss           0x000000002000ee94        0x0 ././lvgl/lv_misc/lv_mem.o
 .bss.zero_mem  0x000000002000ee94        0x4 ././lvgl/lv_misc/lv_mem.o
 .bss           0x000000002000ee98        0x0 ././lvgl/lv_misc/lv_font.o
 .bss           0x000000002000ee98        0x0 ././lvgl/lv_misc/lv_fonts/lv_font_dejavu_20_cyrillic.o
 .bss           0x000000002000ee98        0x0 ././lvgl/lv_misc/lv_fonts/lv_font_dejavu_30.o
 .bss           0x000000002000ee98        0x0 ././lvgl/lv_misc/lv_fonts/lv_font_dejavu_30_cyrillic.o
 .bss           0x000000002000ee98        0x0 ././lvgl/lv_misc/lv_fonts/lv_font_dejavu_10_cyrillic.o
 .bss           0x000000002000ee98        0x0 ././lvgl/lv_misc/lv_fonts/lv_font_dejavu_10_latin_sup.o
 .bss           0x000000002000ee98        0x0 ././lvgl/lv_misc/lv_fonts/lv_font_symbol_40.o
 .bss           0x000000002000ee98        0x0 ././lvgl/lv_misc/lv_fonts/lv_font_symbol_30.o
 .bss           0x000000002000ee98        0x0 ././lvgl/lv_misc/lv_fonts/lv_font_symbol_20.o
 .bss           0x000000002000ee98        0x0 ././lvgl/lv_misc/lv_fonts/lv_font_dejavu_30_latin_sup.o
 .bss           0x000000002000ee98        0x0 ././lvgl/lv_misc/lv_fonts/lv_font_dejavu_40_latin_sup.o
 .bss           0x000000002000ee98        0x0 ././lvgl/lv_misc/lv_fonts/lv_font_symbol_10.o
 .bss           0x000000002000ee98        0x0 ././lvgl/lv_misc/lv_fonts/lv_font_dejavu_20_latin_sup.o
 .bss           0x000000002000ee98        0x0 ././lvgl/lv_misc/lv_fonts/lv_font_dejavu_20.o
 .bss           0x000000002000ee98        0x0 ././lvgl/lv_misc/lv_fonts/lv_font_dejavu_40_cyrillic.o
 .bss           0x000000002000ee98        0x0 ././lvgl/lv_misc/lv_fonts/lv_font_dejavu_40.o
 .bss           0x000000002000ee98        0x0 ././lvgl/lv_misc/lv_fonts/lv_font_dejavu_10.o
 .bss           0x000000002000ee98        0x0 ././lvgl/lv_misc/lv_area.o
 .bss           0x000000002000ee98        0x0 ././mew.o
 .bss._mew_loop_counter
                0x000000002000ee98        0x4 ././mew.o
 .bss           0x000000002000ee9c        0x0 ././app/pwd_generator/mew_passgen.o
 .bss           0x000000002000ee9c        0x0 ././app/pwd_generator/mew_xor_algo.o
 .bss           0x000000002000ee9c        0x0 ././app/packet_parser/parser.o
 .bss._mew_comm_buffer
                0x000000002000ee9c      0x80a ././app/packet_parser/parser.o
 *fill*         0x000000002000f6a6        0x2 
 .bss._mew_comm_buffer_counter
                0x000000002000f6a8        0x4 ././app/packet_parser/parser.o
 .bss._mew_comm_command
                0x000000002000f6ac        0x4 ././app/packet_parser/parser.o
 .bss._mew_comm_driver_id
                0x000000002000f6b0        0x4 ././app/packet_parser/parser.o
 .bss._mew_comm_last_error
                0x000000002000f6b4        0x4 ././app/packet_parser/parser.o
 .bss._mew_comm_last_time
                0x000000002000f6b8        0x4 ././app/packet_parser/parser.o
 .bss._mew_comm_payload
                0x000000002000f6bc      0x800 ././app/packet_parser/parser.o
 .bss._mew_comm_payload_crc32
                0x000000002000febc        0x4 ././app/packet_parser/parser.o
 .bss._mew_comm_payload_length
                0x000000002000fec0        0x4 ././app/packet_parser/parser.o
 .bss._mew_comm_payload_present
                0x000000002000fec4        0x4 ././app/packet_parser/parser.o
 .bss.current_checksum
                0x000000002000fec8        0x4 ././app/packet_parser/parser.o
 .bss           0x000000002000fecc        0x0 ././debug.o
 .bss           0x000000002000fecc        0x0 ././drivers/hw_crypt/P256-cortex-m4-ecdh-speedopt-gcc.o
 .bss           0x000000002000fecc        0x0 /home/konata/devel/libopencm3/lib/libopencm3_stm32f4.a(rcc.o)
 .bss           0x000000002000fecc        0x0 /home/konata/devel/libopencm3/lib/libopencm3_stm32f4.a(crc_common_all.o)
 .bss           0x000000002000fecc        0x0 /home/konata/devel/libopencm3/lib/libopencm3_stm32f4.a(dma_common_f24.o)
 .bss           0x000000002000fecc        0x0 /home/konata/devel/libopencm3/lib/libopencm3_stm32f4.a(gpio_common_all.o)
 .bss           0x000000002000fecc        0x0 /home/konata/devel/libopencm3/lib/libopencm3_stm32f4.a(gpio_common_f0234.o)
 .bss           0x000000002000fecc        0x0 /home/konata/devel/libopencm3/lib/libopencm3_stm32f4.a(i2c_common_v1.o)
 .bss           0x000000002000fecc        0x0 /home/konata/devel/libopencm3/lib/libopencm3_stm32f4.a(spi_common_all.o)
 .bss           0x000000002000fecc        0x0 /home/konata/devel/libopencm3/lib/libopencm3_stm32f4.a(spi_common_l1f124.o)
 .bss           0x000000002000fecc        0x0 /home/konata/devel/libopencm3/lib/libopencm3_stm32f4.a(usart_common_all.o)
 .bss           0x000000002000fecc        0x0 /home/konata/devel/libopencm3/lib/libopencm3_stm32f4.a(usart_common_f124.o)
 .bss           0x000000002000fecc        0x0 /home/konata/devel/libopencm3/lib/libopencm3_stm32f4.a(flash_common_f234.o)
 .bss           0x000000002000fecc        0x0 /home/konata/devel/libopencm3/lib/libopencm3_stm32f4.a(flash_common_f24.o)
 .bss           0x000000002000fecc        0x0 /home/konata/devel/libopencm3/lib/libopencm3_stm32f4.a(exti_common_all.o)
 .bss           0x000000002000fecc        0x0 /home/konata/devel/libopencm3/lib/libopencm3_stm32f4.a(rcc_common_all.o)
 .bss           0x000000002000fecc        0x0 /home/konata/devel/libopencm3/lib/libopencm3_stm32f4.a(usb.o)
 .bss           0x000000002000fecc        0x0 /home/konata/devel/libopencm3/lib/libopencm3_stm32f4.a(usb_standard.o)
 .bss           0x000000002000fecc        0x0 /home/konata/devel/libopencm3/lib/libopencm3_stm32f4.a(usb_control.o)
 .bss           0x000000002000fecc        0x0 /home/konata/devel/libopencm3/lib/libopencm3_stm32f4.a(usb_f107.o)
 .bss.usbd_dev  0x000000002000fecc       0xfc /home/konata/devel/libopencm3/lib/libopencm3_stm32f4.a(usb_f107.o)
 .bss           0x000000002000ffc8        0x0 /home/konata/devel/libopencm3/lib/libopencm3_stm32f4.a(vector.o)
 .bss           0x000000002000ffc8        0x0 /home/konata/devel/libopencm3/lib/libopencm3_stm32f4.a(systick.o)
 .bss           0x000000002000ffc8        0x0 /home/konata/devel/libopencm3/lib/libopencm3_stm32f4.a(nvic.o)
 .bss           0x000000002000ffc8        0x0 /home/konata/devel/libopencm3/lib/libopencm3_stm32f4.a(pwr.o)
 .bss           0x000000002000ffc8        0x0 /home/konata/devel/libopencm3/lib/libopencm3_stm32f4.a(usb_fx07_common.o)
 .bss           0x000000002000ffc8        0x0 /home/kaori/devel/stm32/gcc-arm-none-eabi-8-2018-q4-major/bin/../lib/gcc/arm-none-eabi/8.2.1/../../../../arm-none-eabi/lib/thumb/v7e-m+fp/hard/libc_nano.a(lib_a-malloc.o)
 .bss           0x000000002000ffc8        0x0 /home/kaori/devel/stm32/gcc-arm-none-eabi-8-2018-q4-major/bin/../lib/gcc/arm-none-eabi/8.2.1/../../../../arm-none-eabi/lib/thumb/v7e-m+fp/hard/libc_nano.a(lib_a-memcpy-stub.o)
 .bss           0x000000002000ffc8        0x0 /home/kaori/devel/stm32/gcc-arm-none-eabi-8-2018-q4-major/bin/../lib/gcc/arm-none-eabi/8.2.1/../../../../arm-none-eabi/lib/thumb/v7e-m+fp/hard/libc_nano.a(lib_a-memset.o)
 .bss           0x000000002000ffc8        0x0 /home/kaori/devel/stm32/gcc-arm-none-eabi-8-2018-q4-major/bin/../lib/gcc/arm-none-eabi/8.2.1/../../../../arm-none-eabi/lib/thumb/v7e-m+fp/hard/libc_nano.a(lib_a-nano-freer.o)
 .bss           0x000000002000ffc8        0x0 /home/kaori/devel/stm32/gcc-arm-none-eabi-8-2018-q4-major/bin/../lib/gcc/arm-none-eabi/8.2.1/../../../../arm-none-eabi/lib/thumb/v7e-m+fp/hard/libc_nano.a(lib_a-nano-mallocr.o)
 .bss.__malloc_free_list
                0x000000002000ffc8        0x4 /home/kaori/devel/stm32/gcc-arm-none-eabi-8-2018-q4-major/bin/../lib/gcc/arm-none-eabi/8.2.1/../../../../arm-none-eabi/lib/thumb/v7e-m+fp/hard/libc_nano.a(lib_a-nano-mallocr.o)
                0x000000002000ffc8                __malloc_free_list
 .bss.__malloc_sbrk_start
                0x000000002000ffcc        0x4 /home/kaori/devel/stm32/gcc-arm-none-eabi-8-2018-q4-major/bin/../lib/gcc/arm-none-eabi/8.2.1/../../../../arm-none-eabi/lib/thumb/v7e-m+fp/hard/libc_nano.a(lib_a-nano-mallocr.o)
                0x000000002000ffcc                __malloc_sbrk_start
 .bss           0x000000002000ffd0        0x0 /home/kaori/devel/stm32/gcc-arm-none-eabi-8-2018-q4-major/bin/../lib/gcc/arm-none-eabi/8.2.1/../../../../arm-none-eabi/lib/thumb/v7e-m+fp/hard/libc_nano.a(lib_a-sbrkr.o)
 .bss           0x000000002000ffd0        0x0 /home/kaori/devel/stm32/gcc-arm-none-eabi-8-2018-q4-major/bin/../lib/gcc/arm-none-eabi/8.2.1/../../../../arm-none-eabi/lib/thumb/v7e-m+fp/hard/libc_nano.a(lib_a-strchr.o)
 .bss           0x000000002000ffd0        0x0 /home/kaori/devel/stm32/gcc-arm-none-eabi-8-2018-q4-major/bin/../lib/gcc/arm-none-eabi/8.2.1/../../../../arm-none-eabi/lib/thumb/v7e-m+fp/hard/libc_nano.a(lib_a-strcmp.o)
 .bss           0x000000002000ffd0        0x0 /home/kaori/devel/stm32/gcc-arm-none-eabi-8-2018-q4-major/bin/../lib/gcc/arm-none-eabi/8.2.1/../../../../arm-none-eabi/lib/thumb/v7e-m+fp/hard/libc_nano.a(lib_a-strcpy.o)
 .bss           0x000000002000ffd0        0x0 /home/kaori/devel/stm32/gcc-arm-none-eabi-8-2018-q4-major/bin/../lib/gcc/arm-none-eabi/8.2.1/../../../../arm-none-eabi/lib/thumb/v7e-m+fp/hard/libc_nano.a(lib_a-strlen.o)
 .bss           0x000000002000ffd0        0x0 /home/kaori/devel/stm32/gcc-arm-none-eabi-8-2018-q4-major/bin/../lib/gcc/arm-none-eabi/8.2.1/../../../../arm-none-eabi/lib/thumb/v7e-m+fp/hard/libc_nano.a(lib_a-strstr.o)
 .bss           0x000000002000ffd0        0x0 /home/kaori/devel/stm32/gcc-arm-none-eabi-8-2018-q4-major/bin/../lib/gcc/arm-none-eabi/8.2.1/../../../../arm-none-eabi/lib/thumb/v7e-m+fp/hard/libc_nano.a(lib_a-impure.o)
 .bss           0x000000002000ffd0        0x0 /home/kaori/devel/stm32/gcc-arm-none-eabi-8-2018-q4-major/bin/../lib/gcc/arm-none-eabi/8.2.1/../../../../arm-none-eabi/lib/thumb/v7e-m+fp/hard/libc_nano.a(lib_a-mlock.o)
 .bss           0x000000002000ffd0        0x0 /home/kaori/devel/stm32/gcc-arm-none-eabi-8-2018-q4-major/bin/../lib/gcc/arm-none-eabi/8.2.1/../../../../arm-none-eabi/lib/thumb/v7e-m+fp/hard/libc_nano.a(lib_a-reent.o)
 .bss           0x000000002000ffd0        0x0 /home/kaori/devel/stm32/gcc-arm-none-eabi-8-2018-q4-major/bin/../lib/gcc/arm-none-eabi/8.2.1/../../../../arm-none-eabi/lib/thumb/v7e-m+fp/hard/libc_nano.a(lib_a-lock.o)
 .bss           0x000000002000ffd0        0x0 /home/kaori/devel/stm32/gcc-arm-none-eabi-8-2018-q4-major/bin/../lib/gcc/arm-none-eabi/8.2.1/../../../../arm-none-eabi/lib/thumb/v7e-m+fp/hard/libnosys.a(sbrk.o)
 .bss.heap_end.5501
                0x000000002000ffd0        0x4 /home/kaori/devel/stm32/gcc-arm-none-eabi-8-2018-q4-major/bin/../lib/gcc/arm-none-eabi/8.2.1/../../../../arm-none-eabi/lib/thumb/v7e-m+fp/hard/libnosys.a(sbrk.o)
 *(COMMON)
 COMMON         0x000000002000ffd4        0x4 /home/kaori/devel/stm32/gcc-arm-none-eabi-8-2018-q4-major/bin/../lib/gcc/arm-none-eabi/8.2.1/../../../../arm-none-eabi/lib/thumb/v7e-m+fp/hard/libc_nano.a(lib_a-reent.o)
                0x000000002000ffd4                errno
 COMMON         0x000000002000ffd8        0x9 /home/kaori/devel/stm32/gcc-arm-none-eabi-8-2018-q4-major/bin/../lib/gcc/arm-none-eabi/8.2.1/../../../../arm-none-eabi/lib/thumb/v7e-m+fp/hard/libc_nano.a(lib_a-lock.o)
                0x000000002000ffd8                __lock___atexit_recursive_mutex
                0x000000002000ffd9                __lock___arc4random_mutex
                0x000000002000ffda                __lock___env_recursive_mutex
                0x000000002000ffdb                __lock___sinit_recursive_mutex
                0x000000002000ffdc                __lock___malloc_recursive_mutex
                0x000000002000ffdd                __lock___at_quick_exit_mutex
                0x000000002000ffde                __lock___dd_hash_mutex
                0x000000002000ffdf                __lock___tz_mutex
                0x000000002000ffe0                __lock___sfp_recursive_mutex
                0x000000002000ffe4                . = ALIGN (0x4)
 *fill*         0x000000002000ffe1        0x3 
                0x000000002000ffe4                _ebss = .

.ccm            0x0000000010000000        0x0
                0x0000000010000000                . = ALIGN (0x4)
                0x0000000010000000                _sccm = .
 *(.ccm)
                0x0000000010000000                . = ALIGN (0x4)
                0x0000000010000000                _eccm = .

/DISCARD/
 *(.eh_frame)
                0x0000000010000000                . = ALIGN (0x4)
                0x0000000010000000                end = .
                0x0000000020030000                PROVIDE (_stack = (ORIGIN (ram) + LENGTH (ram)))
OUTPUT(.//mew.elf elf32-littlearm)

.debug_info     0x0000000000000000    0x96502
 .debug_info    0x0000000000000000     0x109f ././ui/ui_lhandlers.o
 .debug_info    0x000000000000109f      0xf7b ././ui/mew_logo.o
 .debug_info    0x000000000000201a     0x187d ././ui/pinpad.o
 .debug_info    0x0000000000003897     0x1414 ././drivers/display/ts_tsc2007.o
 .debug_info    0x0000000000004cab     0x2a06 ././drivers/display/display.o
 .debug_info    0x00000000000076b1     0x16b7 ././drivers/bluetooth/bt_usart.o
 .debug_info    0x0000000000008d68      0xeb4 ././drivers/flash/otp_storage.o
 .debug_info    0x0000000000009c1c     0x10d2 ././drivers/system/clock.o
 .debug_info    0x000000000000acee     0x115e ././drivers/system/systick.o
 .debug_info    0x000000000000be4c      0xbbe ././drivers/system/random.o
 .debug_info    0x000000000000ca0a      0xb7e ././drivers/system/system.o
 .debug_info    0x000000000000d588      0xa35 ././drivers/spi_flash/w25n01gvzeig.o
 .debug_info    0x000000000000dfbd      0xe1b ././drivers/spi_flash/flash.o
 .debug_info    0x000000000000edd8      0xcf3 ././drivers/duart/duart.o
 .debug_info    0x000000000000facb      0xfc6 ././drivers/i2c/i2c.o
 .debug_info    0x0000000000010a91     0x14fc ././drivers/usb/mew_usb_hid.o
 .debug_info    0x0000000000011f8d     0x12f1 ././drivers/hw_crypt/aes256.o
 .debug_info    0x000000000001327e      0xbe3 ././drivers/hw_crypt/P256-cortex-ecdh.o
 .debug_info    0x0000000000013e61      0xabf ././drivers/hw_crypt/sha2_256.o
 .debug_info    0x0000000000014920     0x5fcd ././lvgl/lv_core/lv_obj.o
 .debug_info    0x000000000001a8ed     0x1bbd ././lvgl/lv_core/lv_group.o
 .debug_info    0x000000000001c4aa      0xb3e ././lvgl/lv_core/lv_vdb.o
 .debug_info    0x000000000001cfe8     0x1589 ././lvgl/lv_core/lv_style.o
 .debug_info    0x000000000001e571     0x24c4 ././lvgl/lv_core/lv_indev.o
 .debug_info    0x0000000000020a35     0x2185 ././lvgl/lv_core/lv_refr.o
 .debug_info    0x0000000000022bba     0x2b74 ././lvgl/lv_objx/lv_kb.o
 .debug_info    0x000000000002572e     0x25e5 ././lvgl/lv_objx/lv_sw.o
 .debug_info    0x0000000000027d13     0x2151 ././lvgl/lv_objx/lv_img.o
 .debug_info    0x0000000000029e64     0x2ff4 ././lvgl/lv_objx/lv_slider.o
 .debug_info    0x000000000002ce58     0x465a ././lvgl/lv_objx/lv_ta.o
 .debug_info    0x00000000000314b2     0x3392 ././lvgl/lv_objx/lv_chart.o
 .debug_info    0x0000000000034844     0x3bed ././lvgl/lv_objx/lv_ddlist.o
 .debug_info    0x0000000000038431     0x29ff ././lvgl/lv_objx/lv_cb.o
 .debug_info    0x000000000003ae30     0x2ab1 ././lvgl/lv_objx/lv_mbox.o
 .debug_info    0x000000000003d8e1     0x36e7 ././lvgl/lv_objx/lv_roller.o
 .debug_info    0x0000000000040fc8     0x2d64 ././lvgl/lv_objx/lv_gauge.o
 .debug_info    0x0000000000043d2c     0x3169 ././lvgl/lv_objx/lv_win.o
 .debug_info    0x0000000000046e95     0x37ee ././lvgl/lv_objx/lv_list.o
 .debug_info    0x000000000004a683     0x412b ././lvgl/lv_objx/lv_tabview.o
 .debug_info    0x000000000004e7ae     0x1c98 ././lvgl/lv_objx/lv_line.o
 .debug_info    0x0000000000050446     0x26e5 ././lvgl/lv_objx/lv_btn.o
 .debug_info    0x0000000000052b2b     0x39d9 ././lvgl/lv_objx/lv_label.o
 .debug_info    0x0000000000056504     0x3cb7 ././lvgl/lv_objx/lv_page.o
 .debug_info    0x000000000005a1bb     0x2685 ././lvgl/lv_objx/lv_lmeter.o
 .debug_info    0x000000000005c840     0x219e ././lvgl/lv_objx/lv_led.o
 .debug_info    0x000000000005e9de     0x3925 ././lvgl/lv_objx/lv_btnm.o
 .debug_info    0x0000000000062303     0x319d ././lvgl/lv_objx/lv_cont.o
 .debug_info    0x00000000000654a0     0x2735 ././lvgl/lv_objx/lv_bar.o
 .debug_info    0x0000000000067bd5     0x5d57 ././lvgl/lv_draw/lv_draw.o
 .debug_info    0x000000000006d92c     0x1cb7 ././lvgl/lv_draw/lv_draw_vbasic.o
 .debug_info    0x000000000006f5e3      0xe53 ././lvgl/lv_themes/lv_theme_zen.o
 .debug_info    0x0000000000070436      0xe53 ././lvgl/lv_themes/lv_theme_night.o
 .debug_info    0x0000000000071289     0x1535 ././lvgl/lv_themes/lv_theme.o
 .debug_info    0x00000000000727be     0x1aeb ././lvgl/lv_themes/lv_theme_default.o
 .debug_info    0x00000000000742a9      0xe53 ././lvgl/lv_themes/lv_theme_mono.o
 .debug_info    0x00000000000750fc      0xe53 ././lvgl/lv_themes/lv_theme_alien.o
 .debug_info    0x0000000000075f4f     0x26b6 ././lvgl/lv_themes/lv_theme_material.o
 .debug_info    0x0000000000078605      0xe53 ././lvgl/lv_themes/lv_theme_templ.o
 .debug_info    0x0000000000079458      0x19a ././lvgl/lv_hal/lv_hal_tick.o
 .debug_info    0x00000000000795f2      0xe0e ././lvgl/lv_hal/lv_hal_indev.o
 .debug_info    0x000000000007a400     0x127a ././lvgl/lv_hal/lv_hal_disp.o
 .debug_info    0x000000000007b67a     0x18d1 ././lvgl/lv_misc/lv_ll.o
 .debug_info    0x000000000007cf4b      0xa11 ././lvgl/lv_misc/lv_circ.o
 .debug_info    0x000000000007d95c     0x19a6 ././lvgl/lv_misc/lv_txt.o
 .debug_info    0x000000000007f302      0x898 ././lvgl/lv_misc/lv_task.o
 .debug_info    0x000000000007fb9a      0x185 ././lvgl/lv_misc/lv_math.o
 .debug_info    0x000000000007fd1f     0x168d ././lvgl/lv_misc/lv_fs.o
 .debug_info    0x00000000000813ac       0xe5 ././lvgl/lv_misc/lv_trigo.o
 .debug_info    0x0000000000081491     0x1793 ././lvgl/lv_misc/lv_ufs.o
 .debug_info    0x0000000000082c24      0x2da ././lvgl/lv_misc/lv_color.o
 .debug_info    0x0000000000082efe     0x10b1 ././lvgl/lv_misc/lv_anim.o
 .debug_info    0x0000000000083faf      0xe0c ././lvgl/lv_misc/lv_mem.o
 .debug_info    0x0000000000084dbb      0x532 ././lvgl/lv_misc/lv_font.o
 .debug_info    0x00000000000852ed      0x212 ././lvgl/lv_misc/lv_fonts/lv_font_dejavu_20_cyrillic.o
 .debug_info    0x00000000000854ff      0x271 ././lvgl/lv_misc/lv_fonts/lv_font_dejavu_30.o
 .debug_info    0x0000000000085770      0x212 ././lvgl/lv_misc/lv_fonts/lv_font_dejavu_30_cyrillic.o
 .debug_info    0x0000000000085982      0x212 ././lvgl/lv_misc/lv_fonts/lv_font_dejavu_10_cyrillic.o
 .debug_info    0x0000000000085b94      0x212 ././lvgl/lv_misc/lv_fonts/lv_font_dejavu_10_latin_sup.o
 .debug_info    0x0000000000085da6      0x212 ././lvgl/lv_misc/lv_fonts/lv_font_symbol_40.o
 .debug_info    0x0000000000085fb8      0x212 ././lvgl/lv_misc/lv_fonts/lv_font_symbol_30.o
 .debug_info    0x00000000000861ca      0x212 ././lvgl/lv_misc/lv_fonts/lv_font_symbol_20.o
 .debug_info    0x00000000000863dc      0x212 ././lvgl/lv_misc/lv_fonts/lv_font_dejavu_30_latin_sup.o
 .debug_info    0x00000000000865ee      0x212 ././lvgl/lv_misc/lv_fonts/lv_font_dejavu_40_latin_sup.o
 .debug_info    0x0000000000086800      0x212 ././lvgl/lv_misc/lv_fonts/lv_font_symbol_10.o
 .debug_info    0x0000000000086a12      0x212 ././lvgl/lv_misc/lv_fonts/lv_font_dejavu_20_latin_sup.o
 .debug_info    0x0000000000086c24      0x271 ././lvgl/lv_misc/lv_fonts/lv_font_dejavu_20.o
 .debug_info    0x0000000000086e95      0x212 ././lvgl/lv_misc/lv_fonts/lv_font_dejavu_40_cyrillic.o
 .debug_info    0x00000000000870a7      0x212 ././lvgl/lv_misc/lv_fonts/lv_font_dejavu_40.o
 .debug_info    0x00000000000872b9      0x271 ././lvgl/lv_misc/lv_fonts/lv_font_dejavu_10.o
 .debug_info    0x000000000008752a      0xdfe ././lvgl/lv_misc/lv_area.o
 .debug_info    0x0000000000088328     0x1283 ././mew.o
 .debug_info    0x00000000000895ab      0xc07 ././app/pwd_generator/mew_passgen.o
 .debug_info    0x000000000008a1b2      0xd86 ././app/pwd_generator/mew_xor_algo.o
 .debug_info    0x000000000008af38     0x1053 ././app/packet_parser/parser.o
 .debug_info    0x000000000008bf8b      0xb02 ././debug.o
 .debug_info    0x000000000008ca8d      0x959 /home/konata/devel/libopencm3/lib/libopencm3_stm32f4.a(rcc.o)
 .debug_info    0x000000000008d3e6      0x109 /home/konata/devel/libopencm3/lib/libopencm3_stm32f4.a(crc_common_all.o)
 .debug_info    0x000000000008d4ef      0xbb3 /home/konata/devel/libopencm3/lib/libopencm3_stm32f4.a(dma_common_f24.o)
 .debug_info    0x000000000008e0a2      0x22c /home/konata/devel/libopencm3/lib/libopencm3_stm32f4.a(gpio_common_all.o)
 .debug_info    0x000000000008e2ce      0x1eb /home/konata/devel/libopencm3/lib/libopencm3_stm32f4.a(gpio_common_f0234.o)
 .debug_info    0x000000000008e4b9      0xab7 /home/konata/devel/libopencm3/lib/libopencm3_stm32f4.a(i2c_common_v1.o)
 .debug_info    0x000000000008ef70      0x9c1 /home/konata/devel/libopencm3/lib/libopencm3_stm32f4.a(spi_common_all.o)
 .debug_info    0x000000000008f931      0x148 /home/konata/devel/libopencm3/lib/libopencm3_stm32f4.a(spi_common_l1f124.o)
 .debug_info    0x000000000008fa79      0x4b2 /home/konata/devel/libopencm3/lib/libopencm3_stm32f4.a(usart_common_all.o)
 .debug_info    0x000000000008ff2b      0x17a /home/konata/devel/libopencm3/lib/libopencm3_stm32f4.a(usart_common_f124.o)
 .debug_info    0x00000000000900a5      0x11f /home/konata/devel/libopencm3/lib/libopencm3_stm32f4.a(flash_common_f234.o)
 .debug_info    0x00000000000901c4      0x50a /home/konata/devel/libopencm3/lib/libopencm3_stm32f4.a(flash_common_f24.o)
 .debug_info    0x00000000000906ce      0x204 /home/konata/devel/libopencm3/lib/libopencm3_stm32f4.a(exti_common_all.o)
 .debug_info    0x00000000000908d2      0x828 /home/konata/devel/libopencm3/lib/libopencm3_stm32f4.a(rcc_common_all.o)
 .debug_info    0x00000000000910fa      0xdb1 /home/konata/devel/libopencm3/lib/libopencm3_stm32f4.a(usb.o)
 .debug_info    0x0000000000091eab     0x1449 /home/konata/devel/libopencm3/lib/libopencm3_stm32f4.a(usb_standard.o)
 .debug_info    0x00000000000932f4      0xed8 /home/konata/devel/libopencm3/lib/libopencm3_stm32f4.a(usb_control.o)
 .debug_info    0x00000000000941cc      0xdf7 /home/konata/devel/libopencm3/lib/libopencm3_stm32f4.a(usb_f107.o)
 .debug_info    0x0000000000094fc3      0x2b7 /home/konata/devel/libopencm3/lib/libopencm3_stm32f4.a(vector.o)
 .debug_info    0x000000000009527a      0x255 /home/konata/devel/libopencm3/lib/libopencm3_stm32f4.a(systick.o)
 .debug_info    0x00000000000954cf      0x214 /home/konata/devel/libopencm3/lib/libopencm3_stm32f4.a(nvic.o)
 .debug_info    0x00000000000956e3       0xc2 /home/konata/devel/libopencm3/lib/libopencm3_stm32f4.a(pwr.o)
 .debug_info    0x00000000000957a5      0xd5d /home/konata/devel/libopencm3/lib/libopencm3_stm32f4.a(usb_fx07_common.o)

.debug_abbrev   0x0000000000000000    0x145d5
 .debug_abbrev  0x0000000000000000      0x231 ././ui/ui_lhandlers.o
 .debug_abbrev  0x0000000000000231      0x1fa ././ui/mew_logo.o
 .debug_abbrev  0x000000000000042b      0x3ac ././ui/pinpad.o
 .debug_abbrev  0x00000000000007d7      0x338 ././drivers/display/ts_tsc2007.o
 .debug_abbrev  0x0000000000000b0f      0x3c8 ././drivers/display/display.o
 .debug_abbrev  0x0000000000000ed7      0x346 ././drivers/bluetooth/bt_usart.o
 .debug_abbrev  0x000000000000121d      0x266 ././drivers/flash/otp_storage.o
 .debug_abbrev  0x0000000000001483      0x211 ././drivers/system/clock.o
 .debug_abbrev  0x0000000000001694      0x2b8 ././drivers/system/systick.o
 .debug_abbrev  0x000000000000194c      0x25a ././drivers/system/random.o
 .debug_abbrev  0x0000000000001ba6      0x235 ././drivers/system/system.o
 .debug_abbrev  0x0000000000001ddb      0x20e ././drivers/spi_flash/w25n01gvzeig.o
 .debug_abbrev  0x0000000000001fe9      0x223 ././drivers/spi_flash/flash.o
 .debug_abbrev  0x000000000000220c      0x2c3 ././drivers/duart/duart.o
 .debug_abbrev  0x00000000000024cf      0x208 ././drivers/i2c/i2c.o
 .debug_abbrev  0x00000000000026d7      0x309 ././drivers/usb/mew_usb_hid.o
 .debug_abbrev  0x00000000000029e0      0x24f ././drivers/hw_crypt/aes256.o
 .debug_abbrev  0x0000000000002c2f      0x25c ././drivers/hw_crypt/P256-cortex-ecdh.o
 .debug_abbrev  0x0000000000002e8b      0x217 ././drivers/hw_crypt/sha2_256.o
 .debug_abbrev  0x00000000000030a2      0x65b ././lvgl/lv_core/lv_obj.o
 .debug_abbrev  0x00000000000036fd      0x47d ././lvgl/lv_core/lv_group.o
 .debug_abbrev  0x0000000000003b7a      0x274 ././lvgl/lv_core/lv_vdb.o
 .debug_abbrev  0x0000000000003dee      0x39a ././lvgl/lv_core/lv_style.o
 .debug_abbrev  0x0000000000004188      0x525 ././lvgl/lv_core/lv_indev.o
 .debug_abbrev  0x00000000000046ad      0x546 ././lvgl/lv_core/lv_refr.o
 .debug_abbrev  0x0000000000004bf3      0x4d0 ././lvgl/lv_objx/lv_kb.o
 .debug_abbrev  0x00000000000050c3      0x441 ././lvgl/lv_objx/lv_sw.o
 .debug_abbrev  0x0000000000005504      0x4a3 ././lvgl/lv_objx/lv_img.o
 .debug_abbrev  0x00000000000059a7      0x4e3 ././lvgl/lv_objx/lv_slider.o
 .debug_abbrev  0x0000000000005e8a      0x601 ././lvgl/lv_objx/lv_ta.o
 .debug_abbrev  0x000000000000648b      0x54f ././lvgl/lv_objx/lv_chart.o
 .debug_abbrev  0x00000000000069da      0x5b8 ././lvgl/lv_objx/lv_ddlist.o
 .debug_abbrev  0x0000000000006f92      0x4e4 ././lvgl/lv_objx/lv_cb.o
 .debug_abbrev  0x0000000000007476      0x523 ././lvgl/lv_objx/lv_mbox.o
 .debug_abbrev  0x0000000000007999      0x5a5 ././lvgl/lv_objx/lv_roller.o
 .debug_abbrev  0x0000000000007f3e      0x4ac ././lvgl/lv_objx/lv_gauge.o
 .debug_abbrev  0x00000000000083ea      0x52c ././lvgl/lv_objx/lv_win.o
 .debug_abbrev  0x0000000000008916      0x56b ././lvgl/lv_objx/lv_list.o
 .debug_abbrev  0x0000000000008e81      0x5a1 ././lvgl/lv_objx/lv_tabview.o
 .debug_abbrev  0x0000000000009422      0x428 ././lvgl/lv_objx/lv_line.o
 .debug_abbrev  0x000000000000984a      0x4ef ././lvgl/lv_objx/lv_btn.o
 .debug_abbrev  0x0000000000009d39      0x571 ././lvgl/lv_objx/lv_label.o
 .debug_abbrev  0x000000000000a2aa      0x5c0 ././lvgl/lv_objx/lv_page.o
 .debug_abbrev  0x000000000000a86a      0x4a8 ././lvgl/lv_objx/lv_lmeter.o
 .debug_abbrev  0x000000000000ad12      0x471 ././lvgl/lv_objx/lv_led.o
 .debug_abbrev  0x000000000000b183      0x5d2 ././lvgl/lv_objx/lv_btnm.o
 .debug_abbrev  0x000000000000b755      0x517 ././lvgl/lv_objx/lv_cont.o
 .debug_abbrev  0x000000000000bc6c      0x50c ././lvgl/lv_objx/lv_bar.o
 .debug_abbrev  0x000000000000c178      0x531 ././lvgl/lv_draw/lv_draw.o
 .debug_abbrev  0x000000000000c6a9      0x44f ././lvgl/lv_draw/lv_draw_vbasic.o
 .debug_abbrev  0x000000000000caf8      0x1c4 ././lvgl/lv_themes/lv_theme_zen.o
 .debug_abbrev  0x000000000000ccbc      0x1c4 ././lvgl/lv_themes/lv_theme_night.o
 .debug_abbrev  0x000000000000ce80      0x240 ././lvgl/lv_themes/lv_theme.o
 .debug_abbrev  0x000000000000d0c0      0x3b2 ././lvgl/lv_themes/lv_theme_default.o
 .debug_abbrev  0x000000000000d472      0x1c4 ././lvgl/lv_themes/lv_theme_mono.o
 .debug_abbrev  0x000000000000d636      0x1c4 ././lvgl/lv_themes/lv_theme_alien.o
 .debug_abbrev  0x000000000000d7fa      0x3a3 ././lvgl/lv_themes/lv_theme_material.o
 .debug_abbrev  0x000000000000db9d      0x1c4 ././lvgl/lv_themes/lv_theme_templ.o
 .debug_abbrev  0x000000000000dd61      0x110 ././lvgl/lv_hal/lv_hal_tick.o
 .debug_abbrev  0x000000000000de71      0x299 ././lvgl/lv_hal/lv_hal_indev.o
 .debug_abbrev  0x000000000000e10a      0x2e0 ././lvgl/lv_hal/lv_hal_disp.o
 .debug_abbrev  0x000000000000e3ea      0x42d ././lvgl/lv_misc/lv_ll.o
 .debug_abbrev  0x000000000000e817      0x1ee ././lvgl/lv_misc/lv_circ.o
 .debug_abbrev  0x000000000000ea05      0x4e0 ././lvgl/lv_misc/lv_txt.o
 .debug_abbrev  0x000000000000eee5      0x301 ././lvgl/lv_misc/lv_task.o
 .debug_abbrev  0x000000000000f1e6       0x9c ././lvgl/lv_misc/lv_math.o
 .debug_abbrev  0x000000000000f282      0x488 ././lvgl/lv_misc/lv_fs.o
 .debug_abbrev  0x000000000000f70a       0xa0 ././lvgl/lv_misc/lv_trigo.o
 .debug_abbrev  0x000000000000f7aa      0x463 ././lvgl/lv_misc/lv_ufs.o
 .debug_abbrev  0x000000000000fc0d      0x122 ././lvgl/lv_misc/lv_color.o
 .debug_abbrev  0x000000000000fd2f      0x388 ././lvgl/lv_misc/lv_anim.o
 .debug_abbrev  0x00000000000100b7      0x3cb ././lvgl/lv_misc/lv_mem.o
 .debug_abbrev  0x0000000000010482      0x222 ././lvgl/lv_misc/lv_font.o
 .debug_abbrev  0x00000000000106a4       0xc9 ././lvgl/lv_misc/lv_fonts/lv_font_dejavu_20_cyrillic.o
 .debug_abbrev  0x000000000001076d      0x115 ././lvgl/lv_misc/lv_fonts/lv_font_dejavu_30.o
 .debug_abbrev  0x0000000000010882       0xc9 ././lvgl/lv_misc/lv_fonts/lv_font_dejavu_30_cyrillic.o
 .debug_abbrev  0x000000000001094b       0xc9 ././lvgl/lv_misc/lv_fonts/lv_font_dejavu_10_cyrillic.o
 .debug_abbrev  0x0000000000010a14       0xc9 ././lvgl/lv_misc/lv_fonts/lv_font_dejavu_10_latin_sup.o
 .debug_abbrev  0x0000000000010add       0xc9 ././lvgl/lv_misc/lv_fonts/lv_font_symbol_40.o
 .debug_abbrev  0x0000000000010ba6       0xc9 ././lvgl/lv_misc/lv_fonts/lv_font_symbol_30.o
 .debug_abbrev  0x0000000000010c6f       0xc9 ././lvgl/lv_misc/lv_fonts/lv_font_symbol_20.o
 .debug_abbrev  0x0000000000010d38       0xc9 ././lvgl/lv_misc/lv_fonts/lv_font_dejavu_30_latin_sup.o
 .debug_abbrev  0x0000000000010e01       0xc9 ././lvgl/lv_misc/lv_fonts/lv_font_dejavu_40_latin_sup.o
 .debug_abbrev  0x0000000000010eca       0xc9 ././lvgl/lv_misc/lv_fonts/lv_font_symbol_10.o
 .debug_abbrev  0x0000000000010f93       0xc9 ././lvgl/lv_misc/lv_fonts/lv_font_dejavu_20_latin_sup.o
 .debug_abbrev  0x000000000001105c      0x115 ././lvgl/lv_misc/lv_fonts/lv_font_dejavu_20.o
 .debug_abbrev  0x0000000000011171       0xc9 ././lvgl/lv_misc/lv_fonts/lv_font_dejavu_40_cyrillic.o
 .debug_abbrev  0x000000000001123a       0xc9 ././lvgl/lv_misc/lv_fonts/lv_font_dejavu_40.o
 .debug_abbrev  0x0000000000011303      0x115 ././lvgl/lv_misc/lv_fonts/lv_font_dejavu_10.o
 .debug_abbrev  0x0000000000011418      0x2c0 ././lvgl/lv_misc/lv_area.o
 .debug_abbrev  0x00000000000116d8      0x299 ././mew.o
 .debug_abbrev  0x0000000000011971      0x2a7 ././app/pwd_generator/mew_passgen.o
 .debug_abbrev  0x0000000000011c18      0x304 ././app/pwd_generator/mew_xor_algo.o
 .debug_abbrev  0x0000000000011f1c      0x35d ././app/packet_parser/parser.o
 .debug_abbrev  0x0000000000012279      0x268 ././debug.o
 .debug_abbrev  0x00000000000124e1      0x217 /home/konata/devel/libopencm3/lib/libopencm3_stm32f4.a(rcc.o)
 .debug_abbrev  0x00000000000126f8       0xa4 /home/konata/devel/libopencm3/lib/libopencm3_stm32f4.a(crc_common_all.o)
 .debug_abbrev  0x000000000001279c      0x189 /home/konata/devel/libopencm3/lib/libopencm3_stm32f4.a(dma_common_f24.o)
 .debug_abbrev  0x0000000000012925      0x10e /home/konata/devel/libopencm3/lib/libopencm3_stm32f4.a(gpio_common_all.o)
 .debug_abbrev  0x0000000000012a33       0xb7 /home/konata/devel/libopencm3/lib/libopencm3_stm32f4.a(gpio_common_f0234.o)
 .debug_abbrev  0x0000000000012aea      0x27a /home/konata/devel/libopencm3/lib/libopencm3_stm32f4.a(i2c_common_v1.o)
 .debug_abbrev  0x0000000000012d64      0x1aa /home/konata/devel/libopencm3/lib/libopencm3_stm32f4.a(spi_common_all.o)
 .debug_abbrev  0x0000000000012f0e       0xd3 /home/konata/devel/libopencm3/lib/libopencm3_stm32f4.a(spi_common_l1f124.o)
 .debug_abbrev  0x0000000000012fe1      0x10f /home/konata/devel/libopencm3/lib/libopencm3_stm32f4.a(usart_common_all.o)
 .debug_abbrev  0x00000000000130f0       0x8e /home/konata/devel/libopencm3/lib/libopencm3_stm32f4.a(usart_common_f124.o)
 .debug_abbrev  0x000000000001317e       0x8a /home/konata/devel/libopencm3/lib/libopencm3_stm32f4.a(flash_common_f234.o)
 .debug_abbrev  0x0000000000013208      0x131 /home/konata/devel/libopencm3/lib/libopencm3_stm32f4.a(flash_common_f24.o)
 .debug_abbrev  0x0000000000013339       0xe5 /home/konata/devel/libopencm3/lib/libopencm3_stm32f4.a(exti_common_all.o)
 .debug_abbrev  0x000000000001341e      0x105 /home/konata/devel/libopencm3/lib/libopencm3_stm32f4.a(rcc_common_all.o)
 .debug_abbrev  0x0000000000013523      0x1f2 /home/konata/devel/libopencm3/lib/libopencm3_stm32f4.a(usb.o)
 .debug_abbrev  0x0000000000013715      0x3da /home/konata/devel/libopencm3/lib/libopencm3_stm32f4.a(usb_standard.o)
 .debug_abbrev  0x0000000000013aef      0x317 /home/konata/devel/libopencm3/lib/libopencm3_stm32f4.a(usb_control.o)
 .debug_abbrev  0x0000000000013e06      0x163 /home/konata/devel/libopencm3/lib/libopencm3_stm32f4.a(usb_f107.o)
 .debug_abbrev  0x0000000000013f69      0x155 /home/konata/devel/libopencm3/lib/libopencm3_stm32f4.a(vector.o)
 .debug_abbrev  0x00000000000140be      0x132 /home/konata/devel/libopencm3/lib/libopencm3_stm32f4.a(systick.o)
 .debug_abbrev  0x00000000000141f0       0xa6 /home/konata/devel/libopencm3/lib/libopencm3_stm32f4.a(nvic.o)
 .debug_abbrev  0x0000000000014296       0x7b /home/konata/devel/libopencm3/lib/libopencm3_stm32f4.a(pwr.o)
 .debug_abbrev  0x0000000000014311      0x2c4 /home/konata/devel/libopencm3/lib/libopencm3_stm32f4.a(usb_fx07_common.o)

.debug_aranges  0x0000000000000000     0x2968
 .debug_aranges
                0x0000000000000000       0x20 ././ui/ui_lhandlers.o
 .debug_aranges
                0x0000000000000020       0x18 ././ui/mew_logo.o
 .debug_aranges
                0x0000000000000038       0x30 ././ui/pinpad.o
 .debug_aranges
                0x0000000000000068       0x30 ././drivers/display/ts_tsc2007.o
 .debug_aranges
                0x0000000000000098       0x58 ././drivers/display/display.o
 .debug_aranges
                0x00000000000000f0       0x48 ././drivers/bluetooth/bt_usart.o
 .debug_aranges
                0x0000000000000138       0x20 ././drivers/flash/otp_storage.o
 .debug_aranges
                0x0000000000000158       0x20 ././drivers/system/clock.o
 .debug_aranges
                0x0000000000000178       0x38 ././drivers/system/systick.o
 .debug_aranges
                0x00000000000001b0       0x30 ././drivers/system/random.o
 .debug_aranges
                0x00000000000001e0       0x28 ././drivers/system/system.o
 .debug_aranges
                0x0000000000000208       0x20 ././drivers/spi_flash/w25n01gvzeig.o
 .debug_aranges
                0x0000000000000228       0x28 ././drivers/spi_flash/flash.o
 .debug_aranges
                0x0000000000000250       0x38 ././drivers/duart/duart.o
 .debug_aranges
                0x0000000000000288       0x38 ././drivers/i2c/i2c.o
 .debug_aranges
                0x00000000000002c0       0x50 ././drivers/usb/mew_usb_hid.o
 .debug_aranges
                0x0000000000000310       0x30 ././drivers/hw_crypt/aes256.o
 .debug_aranges
                0x0000000000000340       0x28 ././drivers/hw_crypt/P256-cortex-ecdh.o
 .debug_aranges
                0x0000000000000368       0x28 ././drivers/hw_crypt/sha2_256.o
 .debug_aranges
                0x0000000000000390      0x238 ././lvgl/lv_core/lv_obj.o
 .debug_aranges
                0x00000000000005c8       0xa0 ././lvgl/lv_core/lv_group.o
 .debug_aranges
                0x0000000000000668       0x30 ././lvgl/lv_core/lv_vdb.o
 .debug_aranges
                0x0000000000000698       0x40 ././lvgl/lv_core/lv_style.o
 .debug_aranges
                0x00000000000006d8       0xa8 ././lvgl/lv_core/lv_indev.o
 .debug_aranges
                0x0000000000000780       0x70 ././lvgl/lv_core/lv_refr.o
 .debug_aranges
                0x00000000000007f0       0x90 ././lvgl/lv_objx/lv_kb.o
 .debug_aranges
                0x0000000000000880       0x48 ././lvgl/lv_objx/lv_sw.o
 .debug_aranges
                0x00000000000008c8       0x58 ././lvgl/lv_objx/lv_img.o
 .debug_aranges
                0x0000000000000920       0x70 ././lvgl/lv_objx/lv_slider.o
 .debug_aranges
                0x0000000000000990       0xf8 ././lvgl/lv_objx/lv_ta.o
 .debug_aranges
                0x0000000000000a88       0xb8 ././lvgl/lv_objx/lv_chart.o
 .debug_aranges
                0x0000000000000b40       0xd0 ././lvgl/lv_objx/lv_ddlist.o
 .debug_aranges
                0x0000000000000c10       0x58 ././lvgl/lv_objx/lv_cb.o
 .debug_aranges
                0x0000000000000c68       0x90 ././lvgl/lv_objx/lv_mbox.o
 .debug_aranges
                0x0000000000000cf8       0x68 ././lvgl/lv_objx/lv_roller.o
 .debug_aranges
                0x0000000000000d60       0x60 ././lvgl/lv_objx/lv_gauge.o
 .debug_aranges
                0x0000000000000dc0       0xa8 ././lvgl/lv_objx/lv_win.o
 .debug_aranges
                0x0000000000000e68       0x90 ././lvgl/lv_objx/lv_list.o
 .debug_aranges
                0x0000000000000ef8       0xc8 ././lvgl/lv_objx/lv_tabview.o
 .debug_aranges
                0x0000000000000fc0       0x58 ././lvgl/lv_objx/lv_line.o
 .debug_aranges
                0x0000000000001018       0x70 ././lvgl/lv_objx/lv_btn.o
 .debug_aranges
                0x0000000000001088       0xf0 ././lvgl/lv_objx/lv_label.o
 .debug_aranges
                0x0000000000001178       0x90 ././lvgl/lv_objx/lv_page.o
 .debug_aranges
                0x0000000000001208       0x70 ././lvgl/lv_objx/lv_lmeter.o
 .debug_aranges
                0x0000000000001278       0x58 ././lvgl/lv_objx/lv_led.o
 .debug_aranges
                0x00000000000012d0       0x88 ././lvgl/lv_objx/lv_btnm.o
 .debug_aranges
                0x0000000000001358       0x60 ././lvgl/lv_objx/lv_cont.o
 .debug_aranges
                0x00000000000013b8       0x70 ././lvgl/lv_objx/lv_bar.o
 .debug_aranges
                0x0000000000001428       0x50 ././lvgl/lv_draw/lv_draw.o
 .debug_aranges
                0x0000000000001478       0x38 ././lvgl/lv_draw/lv_draw_vbasic.o
 .debug_aranges
                0x00000000000014b0       0x18 ././lvgl/lv_themes/lv_theme_zen.o
 .debug_aranges
                0x00000000000014c8       0x18 ././lvgl/lv_themes/lv_theme_night.o
 .debug_aranges
                0x00000000000014e0       0x28 ././lvgl/lv_themes/lv_theme.o
 .debug_aranges
                0x0000000000001508       0x28 ././lvgl/lv_themes/lv_theme_default.o
 .debug_aranges
                0x0000000000001530       0x18 ././lvgl/lv_themes/lv_theme_mono.o
 .debug_aranges
                0x0000000000001548       0x18 ././lvgl/lv_themes/lv_theme_alien.o
 .debug_aranges
                0x0000000000001560       0x28 ././lvgl/lv_themes/lv_theme_material.o
 .debug_aranges
                0x0000000000001588       0x18 ././lvgl/lv_themes/lv_theme_templ.o
 .debug_aranges
                0x00000000000015a0       0x30 ././lvgl/lv_hal/lv_hal_tick.o
 .debug_aranges
                0x00000000000015d0       0x38 ././lvgl/lv_hal/lv_hal_indev.o
 .debug_aranges
                0x0000000000001608       0x58 ././lvgl/lv_hal/lv_hal_disp.o
 .debug_aranges
                0x0000000000001660       0x80 ././lvgl/lv_misc/lv_ll.o
 .debug_aranges
                0x00000000000016e0       0x30 ././lvgl/lv_misc/lv_circ.o
 .debug_aranges
                0x0000000000001710       0x90 ././lvgl/lv_misc/lv_txt.o
 .debug_aranges
                0x00000000000017a0       0x78 ././lvgl/lv_misc/lv_task.o
 .debug_aranges
                0x0000000000001818       0x20 ././lvgl/lv_misc/lv_math.o
 .debug_aranges
                0x0000000000001838       0xb0 ././lvgl/lv_misc/lv_fs.o
 .debug_aranges
                0x00000000000018e8       0x20 ././lvgl/lv_misc/lv_trigo.o
 .debug_aranges
                0x0000000000001908       0xa0 ././lvgl/lv_misc/lv_ufs.o
 .debug_aranges
                0x00000000000019a8       0x28 ././lvgl/lv_misc/lv_color.o
 .debug_aranges
                0x00000000000019d0       0x50 ././lvgl/lv_misc/lv_anim.o
 .debug_aranges
                0x0000000000001a20       0x50 ././lvgl/lv_misc/lv_mem.o
 .debug_aranges
                0x0000000000001a70       0x60 ././lvgl/lv_misc/lv_font.o
 .debug_aranges
                0x0000000000001ad0       0x18 ././lvgl/lv_misc/lv_fonts/lv_font_dejavu_20_cyrillic.o
 .debug_aranges
                0x0000000000001ae8       0x18 ././lvgl/lv_misc/lv_fonts/lv_font_dejavu_30.o
 .debug_aranges
                0x0000000000001b00       0x18 ././lvgl/lv_misc/lv_fonts/lv_font_dejavu_30_cyrillic.o
 .debug_aranges
                0x0000000000001b18       0x18 ././lvgl/lv_misc/lv_fonts/lv_font_dejavu_10_cyrillic.o
 .debug_aranges
                0x0000000000001b30       0x18 ././lvgl/lv_misc/lv_fonts/lv_font_dejavu_10_latin_sup.o
 .debug_aranges
                0x0000000000001b48       0x18 ././lvgl/lv_misc/lv_fonts/lv_font_symbol_40.o
 .debug_aranges
                0x0000000000001b60       0x18 ././lvgl/lv_misc/lv_fonts/lv_font_symbol_30.o
 .debug_aranges
                0x0000000000001b78       0x18 ././lvgl/lv_misc/lv_fonts/lv_font_symbol_20.o
 .debug_aranges
                0x0000000000001b90       0x18 ././lvgl/lv_misc/lv_fonts/lv_font_dejavu_30_latin_sup.o
 .debug_aranges
                0x0000000000001ba8       0x18 ././lvgl/lv_misc/lv_fonts/lv_font_dejavu_40_latin_sup.o
 .debug_aranges
                0x0000000000001bc0       0x18 ././lvgl/lv_misc/lv_fonts/lv_font_symbol_10.o
 .debug_aranges
                0x0000000000001bd8       0x18 ././lvgl/lv_misc/lv_fonts/lv_font_dejavu_20_latin_sup.o
 .debug_aranges
                0x0000000000001bf0       0x18 ././lvgl/lv_misc/lv_fonts/lv_font_dejavu_20.o
 .debug_aranges
                0x0000000000001c08       0x18 ././lvgl/lv_misc/lv_fonts/lv_font_dejavu_40_cyrillic.o
 .debug_aranges
                0x0000000000001c20       0x18 ././lvgl/lv_misc/lv_fonts/lv_font_dejavu_40.o
 .debug_aranges
                0x0000000000001c38       0x18 ././lvgl/lv_misc/lv_fonts/lv_font_dejavu_10.o
 .debug_aranges
                0x0000000000001c50       0x68 ././lvgl/lv_misc/lv_area.o
 .debug_aranges
                0x0000000000001cb8       0x20 ././mew.o
 .debug_aranges
                0x0000000000001cd8       0x20 ././app/pwd_generator/mew_passgen.o
 .debug_aranges
                0x0000000000001cf8       0x30 ././app/pwd_generator/mew_xor_algo.o
 .debug_aranges
                0x0000000000001d28       0x48 ././app/packet_parser/parser.o
 .debug_aranges
                0x0000000000001d70       0x50 ././debug.o
 .debug_aranges
                0x0000000000001dc0       0xf0 /home/konata/devel/libopencm3/lib/libopencm3_stm32f4.a(rcc.o)
 .debug_aranges
                0x0000000000001eb0       0x30 /home/konata/devel/libopencm3/lib/libopencm3_stm32f4.a(crc_common_all.o)
 .debug_aranges
                0x0000000000001ee0      0x168 /home/konata/devel/libopencm3/lib/libopencm3_stm32f4.a(dma_common_f24.o)
 .debug_aranges
                0x0000000000002048       0x50 /home/konata/devel/libopencm3/lib/libopencm3_stm32f4.a(gpio_common_all.o)
 .debug_aranges
                0x0000000000002098       0x30 /home/konata/devel/libopencm3/lib/libopencm3_stm32f4.a(gpio_common_f0234.o)
 .debug_aranges
                0x00000000000020c8      0x110 /home/konata/devel/libopencm3/lib/libopencm3_stm32f4.a(i2c_common_v1.o)
 .debug_aranges
                0x00000000000021d8      0x178 /home/konata/devel/libopencm3/lib/libopencm3_stm32f4.a(spi_common_all.o)
 .debug_aranges
                0x0000000000002350       0x30 /home/konata/devel/libopencm3/lib/libopencm3_stm32f4.a(spi_common_l1f124.o)
 .debug_aranges
                0x0000000000002380       0xb8 /home/konata/devel/libopencm3/lib/libopencm3_stm32f4.a(usart_common_all.o)
 .debug_aranges
                0x0000000000002438       0x40 /home/konata/devel/libopencm3/lib/libopencm3_stm32f4.a(usart_common_f124.o)
 .debug_aranges
                0x0000000000002478       0x50 /home/konata/devel/libopencm3/lib/libopencm3_stm32f4.a(flash_common_f234.o)
 .debug_aranges
                0x00000000000024c8       0xd0 /home/konata/devel/libopencm3/lib/libopencm3_stm32f4.a(flash_common_f24.o)
 .debug_aranges
                0x0000000000002598       0x48 /home/konata/devel/libopencm3/lib/libopencm3_stm32f4.a(exti_common_all.o)
 .debug_aranges
                0x00000000000025e0       0x58 /home/konata/devel/libopencm3/lib/libopencm3_stm32f4.a(rcc_common_all.o)
 .debug_aranges
                0x0000000000002638       0x88 /home/konata/devel/libopencm3/lib/libopencm3_stm32f4.a(usb.o)
 .debug_aranges
                0x00000000000026c0       0x98 /home/konata/devel/libopencm3/lib/libopencm3_stm32f4.a(usb_standard.o)
 .debug_aranges
                0x0000000000002758       0x60 /home/konata/devel/libopencm3/lib/libopencm3_stm32f4.a(usb_control.o)
 .debug_aranges
                0x00000000000027b8       0x20 /home/konata/devel/libopencm3/lib/libopencm3_stm32f4.a(usb_f107.o)
 .debug_aranges
                0x00000000000027d8       0x30 /home/konata/devel/libopencm3/lib/libopencm3_stm32f4.a(vector.o)
 .debug_aranges
                0x0000000000002808       0x78 /home/konata/devel/libopencm3/lib/libopencm3_stm32f4.a(systick.o)
 .debug_aranges
                0x0000000000002880       0x60 /home/konata/devel/libopencm3/lib/libopencm3_stm32f4.a(nvic.o)
 .debug_aranges
                0x00000000000028e0       0x20 /home/konata/devel/libopencm3/lib/libopencm3_stm32f4.a(pwr.o)
 .debug_aranges
                0x0000000000002900       0x68 /home/konata/devel/libopencm3/lib/libopencm3_stm32f4.a(usb_fx07_common.o)

.debug_ranges   0x0000000000000000     0x75f8
 .debug_ranges  0x0000000000000000       0x10 ././ui/ui_lhandlers.o
 .debug_ranges  0x0000000000000010       0x58 ././ui/pinpad.o
 .debug_ranges  0x0000000000000068       0x40 ././drivers/display/ts_tsc2007.o
 .debug_ranges  0x00000000000000a8      0x170 ././drivers/display/display.o
 .debug_ranges  0x0000000000000218       0x80 ././drivers/bluetooth/bt_usart.o
 .debug_ranges  0x0000000000000298       0x10 ././drivers/flash/otp_storage.o
 .debug_ranges  0x00000000000002a8       0x10 ././drivers/system/clock.o
 .debug_ranges  0x00000000000002b8       0x28 ././drivers/system/systick.o
 .debug_ranges  0x00000000000002e0       0x58 ././drivers/system/random.o
 .debug_ranges  0x0000000000000338       0x18 ././drivers/system/system.o
 .debug_ranges  0x0000000000000350       0x10 ././drivers/spi_flash/w25n01gvzeig.o
 .debug_ranges  0x0000000000000360       0x18 ././drivers/spi_flash/flash.o
 .debug_ranges  0x0000000000000378       0x28 ././drivers/duart/duart.o
 .debug_ranges  0x00000000000003a0       0x28 ././drivers/i2c/i2c.o
 .debug_ranges  0x00000000000003c8       0x40 ././drivers/usb/mew_usb_hid.o
 .debug_ranges  0x0000000000000408       0x20 ././drivers/hw_crypt/aes256.o
 .debug_ranges  0x0000000000000428       0x18 ././drivers/hw_crypt/P256-cortex-ecdh.o
 .debug_ranges  0x0000000000000440       0x18 ././drivers/hw_crypt/sha2_256.o
 .debug_ranges  0x0000000000000458      0xe60 ././lvgl/lv_core/lv_obj.o
 .debug_ranges  0x00000000000012b8      0x310 ././lvgl/lv_core/lv_group.o
 .debug_ranges  0x00000000000015c8       0x38 ././lvgl/lv_core/lv_vdb.o
 .debug_ranges  0x0000000000001600      0x1a8 ././lvgl/lv_core/lv_style.o
 .debug_ranges  0x00000000000017a8      0x218 ././lvgl/lv_core/lv_indev.o
 .debug_ranges  0x00000000000019c0      0x168 ././lvgl/lv_core/lv_refr.o
 .debug_ranges  0x0000000000001b28       0xf8 ././lvgl/lv_objx/lv_kb.o
 .debug_ranges  0x0000000000001c20       0xf8 ././lvgl/lv_objx/lv_sw.o
 .debug_ranges  0x0000000000001d18       0xe0 ././lvgl/lv_objx/lv_img.o
 .debug_ranges  0x0000000000001df8      0x330 ././lvgl/lv_objx/lv_slider.o
 .debug_ranges  0x0000000000002128      0x330 ././lvgl/lv_objx/lv_ta.o
 .debug_ranges  0x0000000000002458      0x248 ././lvgl/lv_objx/lv_chart.o
 .debug_ranges  0x00000000000026a0      0x1f0 ././lvgl/lv_objx/lv_ddlist.o
 .debug_ranges  0x0000000000002890      0x120 ././lvgl/lv_objx/lv_cb.o
 .debug_ranges  0x00000000000029b0      0x100 ././lvgl/lv_objx/lv_mbox.o
 .debug_ranges  0x0000000000002ab0      0x200 ././lvgl/lv_objx/lv_roller.o
 .debug_ranges  0x0000000000002cb0      0x158 ././lvgl/lv_objx/lv_gauge.o
 .debug_ranges  0x0000000000002e08      0x188 ././lvgl/lv_objx/lv_win.o
 .debug_ranges  0x0000000000002f90      0x1f8 ././lvgl/lv_objx/lv_list.o
 .debug_ranges  0x0000000000003188      0x130 ././lvgl/lv_objx/lv_tabview.o
 .debug_ranges  0x00000000000032b8       0xb0 ././lvgl/lv_objx/lv_line.o
 .debug_ranges  0x0000000000003368      0x118 ././lvgl/lv_objx/lv_btn.o
 .debug_ranges  0x0000000000003480      0x248 ././lvgl/lv_objx/lv_label.o
 .debug_ranges  0x00000000000036c8      0x338 ././lvgl/lv_objx/lv_page.o
 .debug_ranges  0x0000000000003a00      0x190 ././lvgl/lv_objx/lv_lmeter.o
 .debug_ranges  0x0000000000003b90      0x1f0 ././lvgl/lv_objx/lv_led.o
 .debug_ranges  0x0000000000003d80      0x3d0 ././lvgl/lv_objx/lv_btnm.o
 .debug_ranges  0x0000000000004150      0x1a8 ././lvgl/lv_objx/lv_cont.o
 .debug_ranges  0x00000000000042f8      0x158 ././lvgl/lv_objx/lv_bar.o
 .debug_ranges  0x0000000000004450      0xe50 ././lvgl/lv_draw/lv_draw.o
 .debug_ranges  0x00000000000052a0      0x338 ././lvgl/lv_draw/lv_draw_vbasic.o
 .debug_ranges  0x00000000000055d8       0x18 ././lvgl/lv_themes/lv_theme.o
 .debug_ranges  0x00000000000055f0      0x4f0 ././lvgl/lv_themes/lv_theme_default.o
 .debug_ranges  0x0000000000005ae0      0x590 ././lvgl/lv_themes/lv_theme_material.o
 .debug_ranges  0x0000000000006070       0x38 ././lvgl/lv_hal/lv_hal_tick.o
 .debug_ranges  0x00000000000060a8       0x28 ././lvgl/lv_hal/lv_hal_indev.o
 .debug_ranges  0x00000000000060d0       0x48 ././lvgl/lv_hal/lv_hal_disp.o
 .debug_ranges  0x0000000000006118      0x168 ././lvgl/lv_misc/lv_ll.o
 .debug_ranges  0x0000000000006280       0x20 ././lvgl/lv_misc/lv_circ.o
 .debug_ranges  0x00000000000062a0      0x1f0 ././lvgl/lv_misc/lv_txt.o
 .debug_ranges  0x0000000000006490       0xc8 ././lvgl/lv_misc/lv_task.o
 .debug_ranges  0x0000000000006558       0x10 ././lvgl/lv_misc/lv_math.o
 .debug_ranges  0x0000000000006568       0xb8 ././lvgl/lv_misc/lv_fs.o
 .debug_ranges  0x0000000000006620       0x10 ././lvgl/lv_misc/lv_trigo.o
 .debug_ranges  0x0000000000006630      0x118 ././lvgl/lv_misc/lv_ufs.o
 .debug_ranges  0x0000000000006748       0x18 ././lvgl/lv_misc/lv_color.o
 .debug_ranges  0x0000000000006760       0x90 ././lvgl/lv_misc/lv_anim.o
 .debug_ranges  0x00000000000067f0       0x90 ././lvgl/lv_misc/lv_mem.o
 .debug_ranges  0x0000000000006880       0x68 ././lvgl/lv_misc/lv_font.o
 .debug_ranges  0x00000000000068e8       0xd0 ././lvgl/lv_misc/lv_area.o
 .debug_ranges  0x00000000000069b8       0x10 ././mew.o
 .debug_ranges  0x00000000000069c8       0x38 ././app/pwd_generator/mew_passgen.o
 .debug_ranges  0x0000000000006a00       0x38 ././app/pwd_generator/mew_xor_algo.o
 .debug_ranges  0x0000000000006a38       0x88 ././app/packet_parser/parser.o
 .debug_ranges  0x0000000000006ac0       0x58 ././debug.o
 .debug_ranges  0x0000000000006b18       0xe0 /home/konata/devel/libopencm3/lib/libopencm3_stm32f4.a(rcc.o)
 .debug_ranges  0x0000000000006bf8       0x20 /home/konata/devel/libopencm3/lib/libopencm3_stm32f4.a(crc_common_all.o)
 .debug_ranges  0x0000000000006c18      0x158 /home/konata/devel/libopencm3/lib/libopencm3_stm32f4.a(dma_common_f24.o)
 .debug_ranges  0x0000000000006d70       0x40 /home/konata/devel/libopencm3/lib/libopencm3_stm32f4.a(gpio_common_all.o)
 .debug_ranges  0x0000000000006db0       0x20 /home/konata/devel/libopencm3/lib/libopencm3_stm32f4.a(gpio_common_f0234.o)
 .debug_ranges  0x0000000000006dd0      0x120 /home/konata/devel/libopencm3/lib/libopencm3_stm32f4.a(i2c_common_v1.o)
 .debug_ranges  0x0000000000006ef0      0x168 /home/konata/devel/libopencm3/lib/libopencm3_stm32f4.a(spi_common_all.o)
 .debug_ranges  0x0000000000007058       0x20 /home/konata/devel/libopencm3/lib/libopencm3_stm32f4.a(spi_common_l1f124.o)
 .debug_ranges  0x0000000000007078       0xa8 /home/konata/devel/libopencm3/lib/libopencm3_stm32f4.a(usart_common_all.o)
 .debug_ranges  0x0000000000007120       0x30 /home/konata/devel/libopencm3/lib/libopencm3_stm32f4.a(usart_common_f124.o)
 .debug_ranges  0x0000000000007150       0x40 /home/konata/devel/libopencm3/lib/libopencm3_stm32f4.a(flash_common_f234.o)
 .debug_ranges  0x0000000000007190       0xc0 /home/konata/devel/libopencm3/lib/libopencm3_stm32f4.a(flash_common_f24.o)
 .debug_ranges  0x0000000000007250       0x50 /home/konata/devel/libopencm3/lib/libopencm3_stm32f4.a(exti_common_all.o)
 .debug_ranges  0x00000000000072a0       0x48 /home/konata/devel/libopencm3/lib/libopencm3_stm32f4.a(rcc_common_all.o)
 .debug_ranges  0x00000000000072e8       0x78 /home/konata/devel/libopencm3/lib/libopencm3_stm32f4.a(usb.o)
 .debug_ranges  0x0000000000007360       0xe0 /home/konata/devel/libopencm3/lib/libopencm3_stm32f4.a(usb_standard.o)
 .debug_ranges  0x0000000000007440       0x68 /home/konata/devel/libopencm3/lib/libopencm3_stm32f4.a(usb_control.o)
 .debug_ranges  0x00000000000074a8       0x10 /home/konata/devel/libopencm3/lib/libopencm3_stm32f4.a(usb_f107.o)
 .debug_ranges  0x00000000000074b8       0x20 /home/konata/devel/libopencm3/lib/libopencm3_stm32f4.a(vector.o)
 .debug_ranges  0x00000000000074d8       0x68 /home/konata/devel/libopencm3/lib/libopencm3_stm32f4.a(systick.o)
 .debug_ranges  0x0000000000007540       0x50 /home/konata/devel/libopencm3/lib/libopencm3_stm32f4.a(nvic.o)
 .debug_ranges  0x0000000000007590       0x10 /home/konata/devel/libopencm3/lib/libopencm3_stm32f4.a(pwr.o)
 .debug_ranges  0x00000000000075a0       0x58 /home/konata/devel/libopencm3/lib/libopencm3_stm32f4.a(usb_fx07_common.o)

.debug_line     0x0000000000000000    0x31a13
 .debug_line    0x0000000000000000      0x338 ././ui/ui_lhandlers.o
 .debug_line    0x0000000000000338      0x223 ././ui/mew_logo.o
 .debug_line    0x000000000000055b      0x4bb ././ui/pinpad.o
 .debug_line    0x0000000000000a16      0x4b9 ././drivers/display/ts_tsc2007.o
 .debug_line    0x0000000000000ecf      0x889 ././drivers/display/display.o
 .debug_line    0x0000000000001758      0x65e ././drivers/bluetooth/bt_usart.o
 .debug_line    0x0000000000001db6      0x432 ././drivers/flash/otp_storage.o
 .debug_line    0x00000000000021e8      0x2b1 ././drivers/system/clock.o
 .debug_line    0x0000000000002499      0x3c3 ././drivers/system/systick.o
 .debug_line    0x000000000000285c      0x37f ././drivers/system/random.o
 .debug_line    0x0000000000002bdb      0x296 ././drivers/system/system.o
 .debug_line    0x0000000000002e71      0x27d ././drivers/spi_flash/w25n01gvzeig.o
 .debug_line    0x00000000000030ee      0x30f ././drivers/spi_flash/flash.o
 .debug_line    0x00000000000033fd      0x2af ././drivers/duart/duart.o
 .debug_line    0x00000000000036ac      0x666 ././drivers/i2c/i2c.o
 .debug_line    0x0000000000003d12      0x4f0 ././drivers/usb/mew_usb_hid.o
 .debug_line    0x0000000000004202      0x551 ././drivers/hw_crypt/aes256.o
 .debug_line    0x0000000000004753      0x2fe ././drivers/hw_crypt/P256-cortex-ecdh.o
 .debug_line    0x0000000000004a51      0x3ce ././drivers/hw_crypt/sha2_256.o
 .debug_line    0x0000000000004e1f     0x24ad ././lvgl/lv_core/lv_obj.o
 .debug_line    0x00000000000072cc      0x9b4 ././lvgl/lv_core/lv_group.o
 .debug_line    0x0000000000007c80      0x2a3 ././lvgl/lv_core/lv_vdb.o
 .debug_line    0x0000000000007f23      0xe8a ././lvgl/lv_core/lv_style.o
 .debug_line    0x0000000000008dad      0xd61 ././lvgl/lv_core/lv_indev.o
 .debug_line    0x0000000000009b0e      0x967 ././lvgl/lv_core/lv_refr.o
 .debug_line    0x000000000000a475      0x9b2 ././lvgl/lv_objx/lv_kb.o
 .debug_line    0x000000000000ae27      0x80b ././lvgl/lv_objx/lv_sw.o
 .debug_line    0x000000000000b632      0x991 ././lvgl/lv_objx/lv_img.o
 .debug_line    0x000000000000bfc3      0xe7e ././lvgl/lv_objx/lv_slider.o
 .debug_line    0x000000000000ce41     0x191b ././lvgl/lv_objx/lv_ta.o
 .debug_line    0x000000000000e75c     0x1056 ././lvgl/lv_objx/lv_chart.o
 .debug_line    0x000000000000f7b2     0x1144 ././lvgl/lv_objx/lv_ddlist.o
 .debug_line    0x00000000000108f6      0x7d5 ././lvgl/lv_objx/lv_cb.o
 .debug_line    0x00000000000110cb      0x908 ././lvgl/lv_objx/lv_mbox.o
 .debug_line    0x00000000000119d3      0xe38 ././lvgl/lv_objx/lv_roller.o
 .debug_line    0x000000000001280b        0x0 ././lvgl/lv_objx/lv_objx_templ.o
 .debug_line    0x000000000001280b      0xad5 ././lvgl/lv_objx/lv_gauge.o
 .debug_line    0x00000000000132e0      0xa99 ././lvgl/lv_objx/lv_win.o
 .debug_line    0x0000000000013d79      0xd9f ././lvgl/lv_objx/lv_list.o
 .debug_line    0x0000000000014b18     0x11e8 ././lvgl/lv_objx/lv_tabview.o
 .debug_line    0x0000000000015d00      0x6f2 ././lvgl/lv_objx/lv_line.o
 .debug_line    0x00000000000163f2      0x96f ././lvgl/lv_objx/lv_btn.o
 .debug_line    0x0000000000016d61     0x15f6 ././lvgl/lv_objx/lv_label.o
 .debug_line    0x0000000000018357     0x1427 ././lvgl/lv_objx/lv_page.o
 .debug_line    0x000000000001977e      0x9e3 ././lvgl/lv_objx/lv_lmeter.o
 .debug_line    0x000000000001a161      0x6fd ././lvgl/lv_objx/lv_led.o
 .debug_line    0x000000000001a85e     0x13e2 ././lvgl/lv_objx/lv_btnm.o
 .debug_line    0x000000000001bc40      0xd5c ././lvgl/lv_objx/lv_cont.o
 .debug_line    0x000000000001c99c      0x8c3 ././lvgl/lv_objx/lv_bar.o
 .debug_line    0x000000000001d25f     0x3a9f ././lvgl/lv_draw/lv_draw.o
 .debug_line    0x0000000000020cfe        0x0 ././lvgl/lv_draw/lv_draw_rbasic.o
 .debug_line    0x0000000000020cfe      0xfe8 ././lvgl/lv_draw/lv_draw_vbasic.o
 .debug_line    0x0000000000021ce6      0x1ea ././lvgl/lv_themes/lv_theme_zen.o
 .debug_line    0x0000000000021ed0      0x1ea ././lvgl/lv_themes/lv_theme_night.o
 .debug_line    0x00000000000220ba      0x24b ././lvgl/lv_themes/lv_theme.o
 .debug_line    0x0000000000022305      0x785 ././lvgl/lv_themes/lv_theme_default.o
 .debug_line    0x0000000000022a8a      0x1ea ././lvgl/lv_themes/lv_theme_mono.o
 .debug_line    0x0000000000022c74      0x1ea ././lvgl/lv_themes/lv_theme_alien.o
 .debug_line    0x0000000000022e5e     0x107f ././lvgl/lv_themes/lv_theme_material.o
 .debug_line    0x0000000000023edd      0x1ea ././lvgl/lv_themes/lv_theme_templ.o
 .debug_line    0x00000000000240c7      0x1dc ././lvgl/lv_hal/lv_hal_tick.o
 .debug_line    0x00000000000242a3      0x32d ././lvgl/lv_hal/lv_hal_indev.o
 .debug_line    0x00000000000245d0      0x44a ././lvgl/lv_hal/lv_hal_disp.o
 .debug_line    0x0000000000024a1a      0x7ef ././lvgl/lv_misc/lv_ll.o
 .debug_line    0x0000000000025209      0x233 ././lvgl/lv_misc/lv_circ.o
 .debug_line    0x000000000002543c      0xc71 ././lvgl/lv_misc/lv_txt.o
 .debug_line    0x00000000000260ad      0x593 ././lvgl/lv_misc/lv_task.o
 .debug_line    0x0000000000026640      0x254 ././lvgl/lv_misc/lv_math.o
 .debug_line    0x0000000000026894      0xb03 ././lvgl/lv_misc/lv_fs.o
 .debug_line    0x0000000000027397        0x0 ././lvgl/lv_misc/lv_templ.o
 .debug_line    0x0000000000027397      0x183 ././lvgl/lv_misc/lv_trigo.o
 .debug_line    0x000000000002751a      0x903 ././lvgl/lv_misc/lv_ufs.o
 .debug_line    0x0000000000027e1d      0x2f9 ././lvgl/lv_misc/lv_color.o
 .debug_line    0x0000000000028116      0x571 ././lvgl/lv_misc/lv_anim.o
 .debug_line    0x0000000000028687      0x3fd ././lvgl/lv_misc/lv_mem.o
 .debug_line    0x0000000000028a84      0x3a9 ././lvgl/lv_misc/lv_font.o
 .debug_line    0x0000000000028e2d      0x110 ././lvgl/lv_misc/lv_fonts/lv_font_dejavu_20_cyrillic.o
 .debug_line    0x0000000000028f3d      0x13d ././lvgl/lv_misc/lv_fonts/lv_font_dejavu_30.o
 .debug_line    0x000000000002907a      0x110 ././lvgl/lv_misc/lv_fonts/lv_font_dejavu_30_cyrillic.o
 .debug_line    0x000000000002918a      0x110 ././lvgl/lv_misc/lv_fonts/lv_font_dejavu_10_cyrillic.o
 .debug_line    0x000000000002929a      0x110 ././lvgl/lv_misc/lv_fonts/lv_font_dejavu_10_latin_sup.o
 .debug_line    0x00000000000293aa      0x110 ././lvgl/lv_misc/lv_fonts/lv_font_symbol_40.o
 .debug_line    0x00000000000294ba      0x110 ././lvgl/lv_misc/lv_fonts/lv_font_symbol_30.o
 .debug_line    0x00000000000295ca      0x110 ././lvgl/lv_misc/lv_fonts/lv_font_symbol_20.o
 .debug_line    0x00000000000296da      0x110 ././lvgl/lv_misc/lv_fonts/lv_font_dejavu_30_latin_sup.o
 .debug_line    0x00000000000297ea      0x110 ././lvgl/lv_misc/lv_fonts/lv_font_dejavu_40_latin_sup.o
 .debug_line    0x00000000000298fa      0x110 ././lvgl/lv_misc/lv_fonts/lv_font_symbol_10.o
 .debug_line    0x0000000000029a0a      0x110 ././lvgl/lv_misc/lv_fonts/lv_font_dejavu_20_latin_sup.o
 .debug_line    0x0000000000029b1a      0x13d ././lvgl/lv_misc/lv_fonts/lv_font_dejavu_20.o
 .debug_line    0x0000000000029c57      0x110 ././lvgl/lv_misc/lv_fonts/lv_font_dejavu_40_cyrillic.o
 .debug_line    0x0000000000029d67      0x110 ././lvgl/lv_misc/lv_fonts/lv_font_dejavu_40.o
 .debug_line    0x0000000000029e77      0x13d ././lvgl/lv_misc/lv_fonts/lv_font_dejavu_10.o
 .debug_line    0x0000000000029fb4      0x42d ././lvgl/lv_misc/lv_area.o
 .debug_line    0x000000000002a3e1      0x420 ././mew.o
 .debug_line    0x000000000002a801      0x357 ././app/pwd_generator/mew_passgen.o
 .debug_line    0x000000000002ab58      0x457 ././app/pwd_generator/mew_xor_algo.o
 .debug_line    0x000000000002afaf      0x652 ././app/packet_parser/parser.o
 .debug_line    0x000000000002b601      0x26c ././debug.o
 .debug_line    0x000000000002b86d      0x5ab /home/konata/devel/libopencm3/lib/libopencm3_stm32f4.a(rcc.o)
 .debug_line    0x000000000002be18      0x32c /home/konata/devel/libopencm3/lib/libopencm3_stm32f4.a(crc_common_all.o)
 .debug_line    0x000000000002c144      0x601 /home/konata/devel/libopencm3/lib/libopencm3_stm32f4.a(dma_common_f24.o)
 .debug_line    0x000000000002c745      0x395 /home/konata/devel/libopencm3/lib/libopencm3_stm32f4.a(gpio_common_all.o)
 .debug_line    0x000000000002cada      0x387 /home/konata/devel/libopencm3/lib/libopencm3_stm32f4.a(gpio_common_f0234.o)
 .debug_line    0x000000000002ce61      0x573 /home/konata/devel/libopencm3/lib/libopencm3_stm32f4.a(i2c_common_v1.o)
 .debug_line    0x000000000002d3d4      0x661 /home/konata/devel/libopencm3/lib/libopencm3_stm32f4.a(spi_common_all.o)
 .debug_line    0x000000000002da35      0x37d /home/konata/devel/libopencm3/lib/libopencm3_stm32f4.a(spi_common_l1f124.o)
 .debug_line    0x000000000002ddb2      0x4af /home/konata/devel/libopencm3/lib/libopencm3_stm32f4.a(usart_common_all.o)
 .debug_line    0x000000000002e261      0x3a1 /home/konata/devel/libopencm3/lib/libopencm3_stm32f4.a(usart_common_f124.o)
 .debug_line    0x000000000002e602      0x388 /home/konata/devel/libopencm3/lib/libopencm3_stm32f4.a(flash_common_f234.o)
 .debug_line    0x000000000002e98a      0x4d9 /home/konata/devel/libopencm3/lib/libopencm3_stm32f4.a(flash_common_f24.o)
 .debug_line    0x000000000002ee63      0x41a /home/konata/devel/libopencm3/lib/libopencm3_stm32f4.a(exti_common_all.o)
 .debug_line    0x000000000002f27d      0x36f /home/konata/devel/libopencm3/lib/libopencm3_stm32f4.a(rcc_common_all.o)
 .debug_line    0x000000000002f5ec      0x409 /home/konata/devel/libopencm3/lib/libopencm3_stm32f4.a(usb.o)
 .debug_line    0x000000000002f9f5      0x57d /home/konata/devel/libopencm3/lib/libopencm3_stm32f4.a(usb_standard.o)
 .debug_line    0x000000000002ff72      0x43d /home/konata/devel/libopencm3/lib/libopencm3_stm32f4.a(usb_control.o)
 .debug_line    0x00000000000303af      0x42f /home/konata/devel/libopencm3/lib/libopencm3_stm32f4.a(usb_f107.o)
 .debug_line    0x00000000000307de      0x399 /home/konata/devel/libopencm3/lib/libopencm3_stm32f4.a(vector.o)
 .debug_line    0x0000000000030b77      0x319 /home/konata/devel/libopencm3/lib/libopencm3_stm32f4.a(systick.o)
 .debug_line    0x0000000000030e90      0x33a /home/konata/devel/libopencm3/lib/libopencm3_stm32f4.a(nvic.o)
 .debug_line    0x00000000000311ca      0x2e3 /home/konata/devel/libopencm3/lib/libopencm3_stm32f4.a(pwr.o)
 .debug_line    0x00000000000314ad      0x566 /home/konata/devel/libopencm3/lib/libopencm3_stm32f4.a(usb_fx07_common.o)

.debug_str      0x0000000000000000    0x247e2
 .debug_str     0x0000000000000000      0x9bc ././ui/ui_lhandlers.o
                                        0xbad (size before relaxing)
 .debug_str     0x00000000000009bc       0xe8 ././ui/mew_logo.o
                                        0x9ff (size before relaxing)
 .debug_str     0x0000000000000aa4      0x5d8 ././ui/pinpad.o
                                       0x10a2 (size before relaxing)
 .debug_str     0x000000000000107c      0x266 ././drivers/display/ts_tsc2007.o
                                        0xc55 (size before relaxing)
 .debug_str     0x00000000000012e2      0x5bd ././drivers/display/display.o
                                       0x1241 (size before relaxing)
 .debug_str     0x000000000000189f      0x2db ././drivers/bluetooth/bt_usart.o
                                        0xc75 (size before relaxing)
 .debug_str     0x0000000000001b7a      0x172 ././drivers/flash/otp_storage.o
                                        0x921 (size before relaxing)
 .debug_str     0x0000000000001cec      0x644 ././drivers/system/clock.o
                                        0xd9b (size before relaxing)
 .debug_str     0x0000000000002330       0xbf ././drivers/system/systick.o
                                        0xc2d (size before relaxing)
 .debug_str     0x00000000000023ef       0x50 ././drivers/system/random.o
                                        0x7c8 (size before relaxing)
 .debug_str     0x000000000000243f       0x43 ././drivers/system/system.o
                                        0x768 (size before relaxing)
 .debug_str     0x0000000000002482       0x72 ././drivers/spi_flash/w25n01gvzeig.o
                                        0x646 (size before relaxing)
 .debug_str     0x00000000000024f4       0x66 ././drivers/spi_flash/flash.o
                                        0x81b (size before relaxing)
 .debug_str     0x000000000000255a       0x80 ././drivers/duart/duart.o
                                        0x6c2 (size before relaxing)
 .debug_str     0x00000000000025da      0x106 ././drivers/i2c/i2c.o
                                        0x76a (size before relaxing)
 .debug_str     0x00000000000026e0      0x565 ././drivers/usb/mew_usb_hid.o
                                        0xd85 (size before relaxing)
 .debug_str     0x0000000000002c45       0xe8 ././drivers/hw_crypt/aes256.o
                                        0xa14 (size before relaxing)
 .debug_str     0x0000000000002d2d       0xa0 ././drivers/hw_crypt/P256-cortex-ecdh.o
                                        0x804 (size before relaxing)
 .debug_str     0x0000000000002dcd       0x6d ././drivers/hw_crypt/sha2_256.o
                                        0x65e (size before relaxing)
 .debug_str     0x0000000000002e3a      0xa67 ././lvgl/lv_core/lv_obj.o
                                       0x1add (size before relaxing)
 .debug_str     0x00000000000038a1      0x154 ././lvgl/lv_core/lv_group.o
                                        0xe6e (size before relaxing)
 .debug_str     0x00000000000039f5       0xa7 ././lvgl/lv_core/lv_vdb.o
                                        0x6c8 (size before relaxing)
 .debug_str     0x0000000000003a9c       0xbf ././lvgl/lv_core/lv_style.o
                                        0xade (size before relaxing)
 .debug_str     0x0000000000003b5b      0x318 ././lvgl/lv_core/lv_indev.o
                                       0x138c (size before relaxing)
 .debug_str     0x0000000000003e73      0x1ff ././lvgl/lv_core/lv_refr.o
                                       0x1031 (size before relaxing)
 .debug_str     0x0000000000004072      0x48b ././lvgl/lv_objx/lv_kb.o
                                       0x1503 (size before relaxing)
 .debug_str     0x00000000000044fd      0x276 ././lvgl/lv_objx/lv_sw.o
                                       0x10f4 (size before relaxing)
 .debug_str     0x0000000000004773      0x331 ././lvgl/lv_objx/lv_img.o
                                       0x11f6 (size before relaxing)
 .debug_str     0x0000000000004aa4      0x1e7 ././lvgl/lv_objx/lv_slider.o
                                       0x1318 (size before relaxing)
 .debug_str     0x0000000000004c8b      0x569 ././lvgl/lv_objx/lv_ta.o
                                       0x17b2 (size before relaxing)
 .debug_str     0x00000000000051f4      0x379 ././lvgl/lv_objx/lv_chart.o
                                       0x12b1 (size before relaxing)
 .debug_str     0x000000000000556d      0x379 ././lvgl/lv_objx/lv_ddlist.o
                                       0x17bb (size before relaxing)
 .debug_str     0x00000000000058e6      0x378 ././lvgl/lv_objx/lv_cb.o
                                       0x1396 (size before relaxing)
 .debug_str     0x0000000000005c5e      0x26b ././lvgl/lv_objx/lv_mbox.o
                                       0x1659 (size before relaxing)
 .debug_str     0x0000000000005ec9      0x1d5 ././lvgl/lv_objx/lv_roller.o
                                       0x1903 (size before relaxing)
 .debug_str     0x000000000000609e       0x1d ././lvgl/lv_objx/lv_objx_templ.o
                                        0x113 (size before relaxing)
 .debug_str     0x00000000000060bb      0x306 ././lvgl/lv_objx/lv_gauge.o
                                       0x1269 (size before relaxing)
 .debug_str     0x00000000000063c1      0x2b9 ././lvgl/lv_objx/lv_win.o
                                       0x1745 (size before relaxing)
 .debug_str     0x000000000000667a      0x283 ././lvgl/lv_objx/lv_list.o
                                       0x16a9 (size before relaxing)
 .debug_str     0x00000000000068fd      0x44d ././lvgl/lv_objx/lv_tabview.o
                                       0x1c3a (size before relaxing)
 .debug_str     0x0000000000006d4a       0xfe ././lvgl/lv_objx/lv_line.o
                                        0xe70 (size before relaxing)
 .debug_str     0x0000000000006e48       0x54 ././lvgl/lv_objx/lv_btn.o
                                       0x1125 (size before relaxing)
 .debug_str     0x0000000000006e9c      0x378 ././lvgl/lv_objx/lv_label.o
                                       0x15d3 (size before relaxing)
 .debug_str     0x0000000000007214      0x1b8 ././lvgl/lv_objx/lv_page.o
                                       0x152f (size before relaxing)
 .debug_str     0x00000000000073cc       0xda ././lvgl/lv_objx/lv_lmeter.o
                                       0x10aa (size before relaxing)
 .debug_str     0x00000000000074a6       0xc1 ././lvgl/lv_objx/lv_led.o
                                        0xee0 (size before relaxing)
 .debug_str     0x0000000000007567      0x1ec ././lvgl/lv_objx/lv_btnm.o
                                       0x13c4 (size before relaxing)
 .debug_str     0x0000000000007753      0x145 ././lvgl/lv_objx/lv_cont.o
                                       0x1412 (size before relaxing)
 .debug_str     0x0000000000007898       0x74 ././lvgl/lv_objx/lv_bar.o
                                       0x116c (size before relaxing)
 .debug_str     0x000000000000790c      0x581 ././lvgl/lv_draw/lv_draw.o
                                       0x13e0 (size before relaxing)
 .debug_str     0x0000000000007e8d       0x1e ././lvgl/lv_draw/lv_draw_rbasic.o
                                        0x114 (size before relaxing)
 .debug_str     0x0000000000007eab      0x1f2 ././lvgl/lv_draw/lv_draw_vbasic.o
                                        0xc38 (size before relaxing)
 .debug_str     0x000000000000809d       0x1e ././lvgl/lv_themes/lv_theme_zen.o
                                        0x91b (size before relaxing)
 .debug_str     0x00000000000080bb       0x20 ././lvgl/lv_themes/lv_theme_night.o
                                        0x91d (size before relaxing)
 .debug_str     0x00000000000080db       0x28 ././lvgl/lv_themes/lv_theme.o
                                        0xa1d (size before relaxing)
 .debug_str     0x0000000000008103      0x175 ././lvgl/lv_themes/lv_theme_default.o
                                        0xb73 (size before relaxing)
 .debug_str     0x0000000000008278       0x1f ././lvgl/lv_themes/lv_theme_mono.o
                                        0x91c (size before relaxing)
 .debug_str     0x0000000000008297       0x20 ././lvgl/lv_themes/lv_theme_alien.o
                                        0x91d (size before relaxing)
 .debug_str     0x00000000000082b7       0xb8 ././lvgl/lv_themes/lv_theme_material.o
                                        0xbd6 (size before relaxing)
 .debug_str     0x000000000000836f       0x20 ././lvgl/lv_themes/lv_theme_templ.o
                                        0x91d (size before relaxing)
 .debug_str     0x000000000000838f       0x47 ././lvgl/lv_hal/lv_hal_tick.o
                                        0x229 (size before relaxing)
 .debug_str     0x00000000000083d6       0x2b ././lvgl/lv_hal/lv_hal_indev.o
                                        0x8c1 (size before relaxing)
 .debug_str     0x0000000000008401       0x84 ././lvgl/lv_hal/lv_hal_disp.o
                                        0xa5c (size before relaxing)
 .debug_str     0x0000000000008485       0xb1 ././lvgl/lv_misc/lv_ll.o
                                        0x76f (size before relaxing)
 .debug_str     0x0000000000008536       0x17 ././lvgl/lv_misc/lv_circ.o
                                        0x617 (size before relaxing)
 .debug_str     0x000000000000854d       0xc5 ././lvgl/lv_misc/lv_txt.o
                                        0xa1e (size before relaxing)
 .debug_str     0x0000000000008612      0x129 ././lvgl/lv_misc/lv_task.o
                                        0x499 (size before relaxing)
 .debug_str     0x000000000000873b       0x41 ././lvgl/lv_misc/lv_math.o
                                        0x21f (size before relaxing)
 .debug_str     0x000000000000877c      0x131 ././lvgl/lv_misc/lv_fs.o
                                        0x9bb (size before relaxing)
 .debug_str     0x00000000000088ad       0x18 ././lvgl/lv_misc/lv_templ.o
                                        0x10e (size before relaxing)
 .debug_str     0x00000000000088c5       0x26 ././lvgl/lv_misc/lv_trigo.o
                                        0x1c5 (size before relaxing)
 .debug_str     0x00000000000088eb      0x1c3 ././lvgl/lv_misc/lv_ufs.o
                                        0xa57 (size before relaxing)
 .debug_str     0x0000000000008aae       0x5a ././lvgl/lv_misc/lv_color.o
                                        0x251 (size before relaxing)
 .debug_str     0x0000000000008b08       0x8f ././lvgl/lv_misc/lv_anim.o
                                        0x8b7 (size before relaxing)
 .debug_str     0x0000000000008b97       0xdd ././lvgl/lv_misc/lv_mem.o
                                        0x744 (size before relaxing)
 .debug_str     0x0000000000008c74       0xa7 ././lvgl/lv_misc/lv_font.o
                                        0x3ac (size before relaxing)
 .debug_str     0x0000000000008d1b       0x33 ././lvgl/lv_misc/lv_fonts/lv_font_dejavu_20_cyrillic.o
                                        0x2c9 (size before relaxing)
 .debug_str     0x0000000000008d4e       0x65 ././lvgl/lv_misc/lv_fonts/lv_font_dejavu_30.o
                                        0x2fb (size before relaxing)
 .debug_str     0x0000000000008db3       0x33 ././lvgl/lv_misc/lv_fonts/lv_font_dejavu_30_cyrillic.o
                                        0x2c9 (size before relaxing)
 .debug_str     0x0000000000008de6       0x33 ././lvgl/lv_misc/lv_fonts/lv_font_dejavu_10_cyrillic.o
                                        0x2c9 (size before relaxing)
 .debug_str     0x0000000000008e19       0x34 ././lvgl/lv_misc/lv_fonts/lv_font_dejavu_10_latin_sup.o
                                        0x2ca (size before relaxing)
 .debug_str     0x0000000000008e4d       0x2a ././lvgl/lv_misc/lv_fonts/lv_font_symbol_40.o
                                        0x2c0 (size before relaxing)
 .debug_str     0x0000000000008e77       0x2a ././lvgl/lv_misc/lv_fonts/lv_font_symbol_30.o
                                        0x2c0 (size before relaxing)
 .debug_str     0x0000000000008ea1       0x2a ././lvgl/lv_misc/lv_fonts/lv_font_symbol_20.o
                                        0x2c0 (size before relaxing)
 .debug_str     0x0000000000008ecb       0x34 ././lvgl/lv_misc/lv_fonts/lv_font_dejavu_30_latin_sup.o
                                        0x2ca (size before relaxing)
 .debug_str     0x0000000000008eff       0x34 ././lvgl/lv_misc/lv_fonts/lv_font_dejavu_40_latin_sup.o
                                        0x2ca (size before relaxing)
 .debug_str     0x0000000000008f33       0x2a ././lvgl/lv_misc/lv_fonts/lv_font_symbol_10.o
                                        0x2c0 (size before relaxing)
 .debug_str     0x0000000000008f5d       0x34 ././lvgl/lv_misc/lv_fonts/lv_font_dejavu_20_latin_sup.o
                                        0x2ca (size before relaxing)
 .debug_str     0x0000000000008f91       0x65 ././lvgl/lv_misc/lv_fonts/lv_font_dejavu_20.o
                                        0x2fb (size before relaxing)
 .debug_str     0x0000000000008ff6       0x33 ././lvgl/lv_misc/lv_fonts/lv_font_dejavu_40_cyrillic.o
                                        0x2c9 (size before relaxing)
 .debug_str     0x0000000000009029       0x2a ././lvgl/lv_misc/lv_fonts/lv_font_dejavu_40.o
                                        0x2c0 (size before relaxing)
 .debug_str     0x0000000000009053       0x65 ././lvgl/lv_misc/lv_fonts/lv_font_dejavu_10.o
                                        0x2fb (size before relaxing)
 .debug_str     0x00000000000090b8       0x39 ././lvgl/lv_misc/lv_area.o
                                        0x712 (size before relaxing)
 .debug_str     0x00000000000090f1       0x6d ././mew.o
                                        0xc9f (size before relaxing)
 .debug_str     0x000000000000915e       0xc5 ././app/pwd_generator/mew_passgen.o
                                        0x6fd (size before relaxing)
 .debug_str     0x0000000000009223       0x43 ././app/pwd_generator/mew_xor_algo.o
                                        0x7bf (size before relaxing)
 .debug_str     0x0000000000009266      0x1a1 ././app/packet_parser/parser.o
                                        0x9ce (size before relaxing)
 .debug_str     0x0000000000009407       0x4d ././debug.o
                                        0x686 (size before relaxing)
 .debug_str     0x0000000000009454     0x85b8 /home/konata/devel/libopencm3/lib/libopencm3_stm32f4.a(rcc.o)
                                       0x88fe (size before relaxing)
 .debug_str     0x0000000000011a0c       0xd2 /home/konata/devel/libopencm3/lib/libopencm3_stm32f4.a(crc_common_all.o)
                                       0x49bc (size before relaxing)
 .debug_str     0x0000000000011ade     0x255d /home/konata/devel/libopencm3/lib/libopencm3_stm32f4.a(dma_common_f24.o)
                                       0x709d (size before relaxing)
 .debug_str     0x000000000001403b     0x140b /home/konata/devel/libopencm3/lib/libopencm3_stm32f4.a(gpio_common_all.o)
                                       0x5d05 (size before relaxing)
 .debug_str     0x0000000000015446       0x5b /home/konata/devel/libopencm3/lib/libopencm3_stm32f4.a(gpio_common_f0234.o)
                                       0x5d27 (size before relaxing)
 .debug_str     0x00000000000154a1     0x130c /home/konata/devel/libopencm3/lib/libopencm3_stm32f4.a(i2c_common_v1.o)
                                       0x8e40 (size before relaxing)
 .debug_str     0x00000000000167ad     0x10b7 /home/konata/devel/libopencm3/lib/libopencm3_stm32f4.a(spi_common_all.o)
                                       0x8efa (size before relaxing)
 .debug_str     0x0000000000017864       0x41 /home/konata/devel/libopencm3/lib/libopencm3_stm32f4.a(spi_common_l1f124.o)
                                       0x8862 (size before relaxing)
 .debug_str     0x00000000000178a5     0x12aa /home/konata/devel/libopencm3/lib/libopencm3_stm32f4.a(usart_common_all.o)
                                       0x8d98 (size before relaxing)
 .debug_str     0x0000000000018b4f       0x2d /home/konata/devel/libopencm3/lib/libopencm3_stm32f4.a(usart_common_f124.o)
                                       0x8bac (size before relaxing)
 .debug_str     0x0000000000018b7c       0x7e /home/konata/devel/libopencm3/lib/libopencm3_stm32f4.a(flash_common_f234.o)
                                       0x5060 (size before relaxing)
 .debug_str     0x0000000000018bfa      0x210 /home/konata/devel/libopencm3/lib/libopencm3_stm32f4.a(flash_common_f24.o)
                                       0x5290 (size before relaxing)
 .debug_str     0x0000000000018e0a      0x52a /home/konata/devel/libopencm3/lib/libopencm3_stm32f4.a(exti_common_all.o)
                                       0x6244 (size before relaxing)
 .debug_str     0x0000000000019334      0x102 /home/konata/devel/libopencm3/lib/libopencm3_stm32f4.a(rcc_common_all.o)
                                       0x8361 (size before relaxing)
 .debug_str     0x0000000000019436     0x321c /home/konata/devel/libopencm3/lib/libopencm3_stm32f4.a(usb.o)
                                       0x716a (size before relaxing)
 .debug_str     0x000000000001c652      0x2e7 /home/konata/devel/libopencm3/lib/libopencm3_stm32f4.a(usb_standard.o)
                                       0x7301 (size before relaxing)
 .debug_str     0x000000000001c939      0x1d0 /home/konata/devel/libopencm3/lib/libopencm3_stm32f4.a(usb_control.o)
                                       0x722a (size before relaxing)
 .debug_str     0x000000000001cb09     0x3381 /home/konata/devel/libopencm3/lib/libopencm3_stm32f4.a(usb_f107.o)
                                       0xebd7 (size before relaxing)
 .debug_str     0x000000000001fe8a     0x2a40 /home/konata/devel/libopencm3/lib/libopencm3_stm32f4.a(vector.o)
                                       0x6371 (size before relaxing)
 .debug_str     0x00000000000228ca      0x2eb /home/konata/devel/libopencm3/lib/libopencm3_stm32f4.a(systick.o)
                                       0x3c87 (size before relaxing)
 .debug_str     0x0000000000022bb5      0x9cf /home/konata/devel/libopencm3/lib/libopencm3_stm32f4.a(nvic.o)
                                       0x4d1a (size before relaxing)
 .debug_str     0x0000000000023584        0x6 /home/konata/devel/libopencm3/lib/libopencm3_stm32f4.a(pwr.o)
                                       0x4c36 (size before relaxing)
 .debug_str     0x000000000002358a     0x1258 /home/konata/devel/libopencm3/lib/libopencm3_stm32f4.a(usb_fx07_common.o)
                                       0xc71a (size before relaxing)

.comment        0x0000000000000000       0xe3
 .comment       0x0000000000000000       0x75 ././ui/ui_lhandlers.o
                                         0x76 (size before relaxing)
 .comment       0x0000000000000075       0x76 ././ui/mew_logo.o
 .comment       0x0000000000000075       0x76 ././ui/pinpad.o
 .comment       0x0000000000000075       0x76 ././drivers/display/ts_tsc2007.o
 .comment       0x0000000000000075       0x76 ././drivers/display/display.o
 .comment       0x0000000000000075       0x76 ././drivers/bluetooth/bt_usart.o
 .comment       0x0000000000000075       0x76 ././drivers/flash/otp_storage.o
 .comment       0x0000000000000075       0x76 ././drivers/system/clock.o
 .comment       0x0000000000000075       0x76 ././drivers/system/systick.o
 .comment       0x0000000000000075       0x76 ././drivers/system/random.o
 .comment       0x0000000000000075       0x76 ././drivers/system/system.o
 .comment       0x0000000000000075       0x76 ././drivers/spi_flash/w25n01gvzeig.o
 .comment       0x0000000000000075       0x76 ././drivers/spi_flash/flash.o
 .comment       0x0000000000000075       0x76 ././drivers/duart/duart.o
 .comment       0x0000000000000075       0x76 ././drivers/i2c/i2c.o
 .comment       0x0000000000000075       0x76 ././drivers/usb/mew_usb_hid.o
 .comment       0x0000000000000075       0x76 ././drivers/hw_crypt/aes256.o
 .comment       0x0000000000000075       0x76 ././drivers/hw_crypt/P256-cortex-ecdh.o
 .comment       0x0000000000000075       0x76 ././drivers/hw_crypt/sha2_256.o
 .comment       0x0000000000000075       0x76 ././lvgl/lv_core/lv_obj.o
 .comment       0x0000000000000075       0x76 ././lvgl/lv_core/lv_group.o
 .comment       0x0000000000000075       0x76 ././lvgl/lv_core/lv_vdb.o
 .comment       0x0000000000000075       0x76 ././lvgl/lv_core/lv_style.o
 .comment       0x0000000000000075       0x76 ././lvgl/lv_core/lv_indev.o
 .comment       0x0000000000000075       0x76 ././lvgl/lv_core/lv_refr.o
 .comment       0x0000000000000075       0x76 ././lvgl/lv_objx/lv_kb.o
 .comment       0x0000000000000075       0x76 ././lvgl/lv_objx/lv_sw.o
 .comment       0x0000000000000075       0x76 ././lvgl/lv_objx/lv_img.o
 .comment       0x0000000000000075       0x76 ././lvgl/lv_objx/lv_slider.o
 .comment       0x0000000000000075       0x76 ././lvgl/lv_objx/lv_ta.o
 .comment       0x0000000000000075       0x76 ././lvgl/lv_objx/lv_chart.o
 .comment       0x0000000000000075       0x76 ././lvgl/lv_objx/lv_ddlist.o
 .comment       0x0000000000000075       0x76 ././lvgl/lv_objx/lv_cb.o
 .comment       0x0000000000000075       0x76 ././lvgl/lv_objx/lv_mbox.o
 .comment       0x0000000000000075       0x76 ././lvgl/lv_objx/lv_roller.o
 .comment       0x0000000000000075       0x76 ././lvgl/lv_objx/lv_objx_templ.o
 .comment       0x0000000000000075       0x76 ././lvgl/lv_objx/lv_gauge.o
 .comment       0x0000000000000075       0x76 ././lvgl/lv_objx/lv_win.o
 .comment       0x0000000000000075       0x76 ././lvgl/lv_objx/lv_list.o
 .comment       0x0000000000000075       0x76 ././lvgl/lv_objx/lv_tabview.o
 .comment       0x0000000000000075       0x76 ././lvgl/lv_objx/lv_line.o
 .comment       0x0000000000000075       0x76 ././lvgl/lv_objx/lv_btn.o
 .comment       0x0000000000000075       0x76 ././lvgl/lv_objx/lv_label.o
 .comment       0x0000000000000075       0x76 ././lvgl/lv_objx/lv_page.o
 .comment       0x0000000000000075       0x76 ././lvgl/lv_objx/lv_lmeter.o
 .comment       0x0000000000000075       0x76 ././lvgl/lv_objx/lv_led.o
 .comment       0x0000000000000075       0x76 ././lvgl/lv_objx/lv_btnm.o
 .comment       0x0000000000000075       0x76 ././lvgl/lv_objx/lv_cont.o
 .comment       0x0000000000000075       0x76 ././lvgl/lv_objx/lv_bar.o
 .comment       0x0000000000000075       0x76 ././lvgl/lv_draw/lv_draw.o
 .comment       0x0000000000000075       0x76 ././lvgl/lv_draw/lv_draw_rbasic.o
 .comment       0x0000000000000075       0x76 ././lvgl/lv_draw/lv_draw_vbasic.o
 .comment       0x0000000000000075       0x76 ././lvgl/lv_themes/lv_theme_zen.o
 .comment       0x0000000000000075       0x76 ././lvgl/lv_themes/lv_theme_night.o
 .comment       0x0000000000000075       0x76 ././lvgl/lv_themes/lv_theme.o
 .comment       0x0000000000000075       0x76 ././lvgl/lv_themes/lv_theme_default.o
 .comment       0x0000000000000075       0x76 ././lvgl/lv_themes/lv_theme_mono.o
 .comment       0x0000000000000075       0x76 ././lvgl/lv_themes/lv_theme_alien.o
 .comment       0x0000000000000075       0x76 ././lvgl/lv_themes/lv_theme_material.o
 .comment       0x0000000000000075       0x76 ././lvgl/lv_themes/lv_theme_templ.o
 .comment       0x0000000000000075       0x76 ././lvgl/lv_hal/lv_hal_tick.o
 .comment       0x0000000000000075       0x76 ././lvgl/lv_hal/lv_hal_indev.o
 .comment       0x0000000000000075       0x76 ././lvgl/lv_hal/lv_hal_disp.o
 .comment       0x0000000000000075       0x76 ././lvgl/lv_misc/lv_ll.o
 .comment       0x0000000000000075       0x76 ././lvgl/lv_misc/lv_circ.o
 .comment       0x0000000000000075       0x76 ././lvgl/lv_misc/lv_txt.o
 .comment       0x0000000000000075       0x76 ././lvgl/lv_misc/lv_task.o
 .comment       0x0000000000000075       0x76 ././lvgl/lv_misc/lv_math.o
 .comment       0x0000000000000075       0x76 ././lvgl/lv_misc/lv_fs.o
 .comment       0x0000000000000075       0x76 ././lvgl/lv_misc/lv_templ.o
 .comment       0x0000000000000075       0x76 ././lvgl/lv_misc/lv_trigo.o
 .comment       0x0000000000000075       0x76 ././lvgl/lv_misc/lv_ufs.o
 .comment       0x0000000000000075       0x76 ././lvgl/lv_misc/lv_color.o
 .comment       0x0000000000000075       0x76 ././lvgl/lv_misc/lv_anim.o
 .comment       0x0000000000000075       0x76 ././lvgl/lv_misc/lv_mem.o
 .comment       0x0000000000000075       0x76 ././lvgl/lv_misc/lv_font.o
 .comment       0x0000000000000075       0x76 ././lvgl/lv_misc/lv_fonts/lv_font_dejavu_20_cyrillic.o
 .comment       0x0000000000000075       0x76 ././lvgl/lv_misc/lv_fonts/lv_font_dejavu_30.o
 .comment       0x0000000000000075       0x76 ././lvgl/lv_misc/lv_fonts/lv_font_dejavu_30_cyrillic.o
 .comment       0x0000000000000075       0x76 ././lvgl/lv_misc/lv_fonts/lv_font_dejavu_10_cyrillic.o
 .comment       0x0000000000000075       0x76 ././lvgl/lv_misc/lv_fonts/lv_font_dejavu_10_latin_sup.o
 .comment       0x0000000000000075       0x76 ././lvgl/lv_misc/lv_fonts/lv_font_symbol_40.o
 .comment       0x0000000000000075       0x76 ././lvgl/lv_misc/lv_fonts/lv_font_symbol_30.o
 .comment       0x0000000000000075       0x76 ././lvgl/lv_misc/lv_fonts/lv_font_symbol_20.o
 .comment       0x0000000000000075       0x76 ././lvgl/lv_misc/lv_fonts/lv_font_dejavu_30_latin_sup.o
 .comment       0x0000000000000075       0x76 ././lvgl/lv_misc/lv_fonts/lv_font_dejavu_40_latin_sup.o
 .comment       0x0000000000000075       0x76 ././lvgl/lv_misc/lv_fonts/lv_font_symbol_10.o
 .comment       0x0000000000000075       0x76 ././lvgl/lv_misc/lv_fonts/lv_font_dejavu_20_latin_sup.o
 .comment       0x0000000000000075       0x76 ././lvgl/lv_misc/lv_fonts/lv_font_dejavu_20.o
 .comment       0x0000000000000075       0x76 ././lvgl/lv_misc/lv_fonts/lv_font_dejavu_40_cyrillic.o
 .comment       0x0000000000000075       0x76 ././lvgl/lv_misc/lv_fonts/lv_font_dejavu_40.o
 .comment       0x0000000000000075       0x76 ././lvgl/lv_misc/lv_fonts/lv_font_dejavu_10.o
 .comment       0x0000000000000075       0x76 ././lvgl/lv_misc/lv_area.o
 .comment       0x0000000000000075       0x76 ././mew.o
 .comment       0x0000000000000075       0x76 ././app/pwd_generator/mew_passgen.o
 .comment       0x0000000000000075       0x76 ././app/pwd_generator/mew_xor_algo.o
 .comment       0x0000000000000075       0x76 ././app/packet_parser/parser.o
 .comment       0x0000000000000075       0x76 ././debug.o
 .comment       0x0000000000000075       0x6e /home/konata/devel/libopencm3/lib/libopencm3_stm32f4.a(rcc.o)
                                         0x6f (size before relaxing)
 .comment       0x00000000000000e3       0x6f /home/konata/devel/libopencm3/lib/libopencm3_stm32f4.a(crc_common_all.o)
 .comment       0x00000000000000e3       0x6f /home/konata/devel/libopencm3/lib/libopencm3_stm32f4.a(dma_common_f24.o)
 .comment       0x00000000000000e3       0x6f /home/konata/devel/libopencm3/lib/libopencm3_stm32f4.a(gpio_common_all.o)
 .comment       0x00000000000000e3       0x6f /home/konata/devel/libopencm3/lib/libopencm3_stm32f4.a(gpio_common_f0234.o)
 .comment       0x00000000000000e3       0x6f /home/konata/devel/libopencm3/lib/libopencm3_stm32f4.a(i2c_common_v1.o)
 .comment       0x00000000000000e3       0x6f /home/konata/devel/libopencm3/lib/libopencm3_stm32f4.a(spi_common_all.o)
 .comment       0x00000000000000e3       0x6f /home/konata/devel/libopencm3/lib/libopencm3_stm32f4.a(spi_common_l1f124.o)
 .comment       0x00000000000000e3       0x6f /home/konata/devel/libopencm3/lib/libopencm3_stm32f4.a(usart_common_all.o)
 .comment       0x00000000000000e3       0x6f /home/konata/devel/libopencm3/lib/libopencm3_stm32f4.a(usart_common_f124.o)
 .comment       0x00000000000000e3       0x6f /home/konata/devel/libopencm3/lib/libopencm3_stm32f4.a(flash_common_f234.o)
 .comment       0x00000000000000e3       0x6f /home/konata/devel/libopencm3/lib/libopencm3_stm32f4.a(flash_common_f24.o)
 .comment       0x00000000000000e3       0x6f /home/konata/devel/libopencm3/lib/libopencm3_stm32f4.a(exti_common_all.o)
 .comment       0x00000000000000e3       0x6f /home/konata/devel/libopencm3/lib/libopencm3_stm32f4.a(rcc_common_all.o)
 .comment       0x00000000000000e3       0x6f /home/konata/devel/libopencm3/lib/libopencm3_stm32f4.a(usb.o)
 .comment       0x00000000000000e3       0x6f /home/konata/devel/libopencm3/lib/libopencm3_stm32f4.a(usb_standard.o)
 .comment       0x00000000000000e3       0x6f /home/konata/devel/libopencm3/lib/libopencm3_stm32f4.a(usb_control.o)
 .comment       0x00000000000000e3       0x6f /home/konata/devel/libopencm3/lib/libopencm3_stm32f4.a(usb_f107.o)
 .comment       0x00000000000000e3       0x6f /home/konata/devel/libopencm3/lib/libopencm3_stm32f4.a(vector.o)
 .comment       0x00000000000000e3       0x6f /home/konata/devel/libopencm3/lib/libopencm3_stm32f4.a(systick.o)
 .comment       0x00000000000000e3       0x6f /home/konata/devel/libopencm3/lib/libopencm3_stm32f4.a(nvic.o)
 .comment       0x00000000000000e3       0x6f /home/konata/devel/libopencm3/lib/libopencm3_stm32f4.a(pwr.o)
 .comment       0x00000000000000e3       0x6f /home/konata/devel/libopencm3/lib/libopencm3_stm32f4.a(usb_fx07_common.o)

.ARM.attributes
                0x0000000000000000       0x32
 .ARM.attributes
                0x0000000000000000       0x34 ././ui/ui_lhandlers.o
 .ARM.attributes
                0x0000000000000034       0x39 ././ui/mew_logo.o
 .ARM.attributes
                0x000000000000006d       0x34 ././ui/pinpad.o
 .ARM.attributes
                0x00000000000000a1       0x34 ././drivers/display/ts_tsc2007.o
 .ARM.attributes
                0x00000000000000d5       0x34 ././drivers/display/display.o
 .ARM.attributes
                0x0000000000000109       0x34 ././drivers/bluetooth/bt_usart.o
 .ARM.attributes
                0x000000000000013d       0x34 ././drivers/flash/otp_storage.o
 .ARM.attributes
                0x0000000000000171       0x34 ././drivers/system/clock.o
 .ARM.attributes
                0x00000000000001a5       0x34 ././drivers/system/systick.o
 .ARM.attributes
                0x00000000000001d9       0x34 ././drivers/system/random.o
 .ARM.attributes
                0x000000000000020d       0x34 ././drivers/system/system.o
 .ARM.attributes
                0x0000000000000241       0x34 ././drivers/spi_flash/w25n01gvzeig.o
 .ARM.attributes
                0x0000000000000275       0x34 ././drivers/spi_flash/flash.o
 .ARM.attributes
                0x00000000000002a9       0x34 ././drivers/duart/duart.o
 .ARM.attributes
                0x00000000000002dd       0x34 ././drivers/i2c/i2c.o
 .ARM.attributes
                0x0000000000000311       0x34 ././drivers/usb/mew_usb_hid.o
 .ARM.attributes
                0x0000000000000345       0x34 ././drivers/hw_crypt/aes256.o
 .ARM.attributes
                0x0000000000000379       0x34 ././drivers/hw_crypt/P256-cortex-ecdh.o
 .ARM.attributes
                0x00000000000003ad       0x34 ././drivers/hw_crypt/sha2_256.o
 .ARM.attributes
                0x00000000000003e1       0x34 ././lvgl/lv_core/lv_obj.o
 .ARM.attributes
                0x0000000000000415       0x34 ././lvgl/lv_core/lv_group.o
 .ARM.attributes
                0x0000000000000449       0x34 ././lvgl/lv_core/lv_vdb.o
 .ARM.attributes
                0x000000000000047d       0x34 ././lvgl/lv_core/lv_style.o
 .ARM.attributes
                0x00000000000004b1       0x34 ././lvgl/lv_core/lv_indev.o
 .ARM.attributes
                0x00000000000004e5       0x34 ././lvgl/lv_core/lv_refr.o
 .ARM.attributes
                0x0000000000000519       0x34 ././lvgl/lv_objx/lv_kb.o
 .ARM.attributes
                0x000000000000054d       0x34 ././lvgl/lv_objx/lv_sw.o
 .ARM.attributes
                0x0000000000000581       0x34 ././lvgl/lv_objx/lv_img.o
 .ARM.attributes
                0x00000000000005b5       0x34 ././lvgl/lv_objx/lv_slider.o
 .ARM.attributes
                0x00000000000005e9       0x34 ././lvgl/lv_objx/lv_ta.o
 .ARM.attributes
                0x000000000000061d       0x34 ././lvgl/lv_objx/lv_chart.o
 .ARM.attributes
                0x0000000000000651       0x34 ././lvgl/lv_objx/lv_ddlist.o
 .ARM.attributes
                0x0000000000000685       0x34 ././lvgl/lv_objx/lv_cb.o
 .ARM.attributes
                0x00000000000006b9       0x34 ././lvgl/lv_objx/lv_mbox.o
 .ARM.attributes
                0x00000000000006ed       0x34 ././lvgl/lv_objx/lv_roller.o
 .ARM.attributes
                0x0000000000000721       0x39 ././lvgl/lv_objx/lv_objx_templ.o
 .ARM.attributes
                0x000000000000075a       0x34 ././lvgl/lv_objx/lv_gauge.o
 .ARM.attributes
                0x000000000000078e       0x34 ././lvgl/lv_objx/lv_win.o
 .ARM.attributes
                0x00000000000007c2       0x34 ././lvgl/lv_objx/lv_list.o
 .ARM.attributes
                0x00000000000007f6       0x34 ././lvgl/lv_objx/lv_tabview.o
 .ARM.attributes
                0x000000000000082a       0x34 ././lvgl/lv_objx/lv_line.o
 .ARM.attributes
                0x000000000000085e       0x34 ././lvgl/lv_objx/lv_btn.o
 .ARM.attributes
                0x0000000000000892       0x34 ././lvgl/lv_objx/lv_label.o
 .ARM.attributes
                0x00000000000008c6       0x34 ././lvgl/lv_objx/lv_page.o
 .ARM.attributes
                0x00000000000008fa       0x34 ././lvgl/lv_objx/lv_lmeter.o
 .ARM.attributes
                0x000000000000092e       0x34 ././lvgl/lv_objx/lv_led.o
 .ARM.attributes
                0x0000000000000962       0x34 ././lvgl/lv_objx/lv_btnm.o
 .ARM.attributes
                0x0000000000000996       0x34 ././lvgl/lv_objx/lv_cont.o
 .ARM.attributes
                0x00000000000009ca       0x34 ././lvgl/lv_objx/lv_bar.o
 .ARM.attributes
                0x00000000000009fe       0x34 ././lvgl/lv_draw/lv_draw.o
 .ARM.attributes
                0x0000000000000a32       0x39 ././lvgl/lv_draw/lv_draw_rbasic.o
 .ARM.attributes
                0x0000000000000a6b       0x34 ././lvgl/lv_draw/lv_draw_vbasic.o
 .ARM.attributes
                0x0000000000000a9f       0x39 ././lvgl/lv_themes/lv_theme_zen.o
 .ARM.attributes
                0x0000000000000ad8       0x39 ././lvgl/lv_themes/lv_theme_night.o
 .ARM.attributes
                0x0000000000000b11       0x34 ././lvgl/lv_themes/lv_theme.o
 .ARM.attributes
                0x0000000000000b45       0x34 ././lvgl/lv_themes/lv_theme_default.o
 .ARM.attributes
                0x0000000000000b79       0x39 ././lvgl/lv_themes/lv_theme_mono.o
 .ARM.attributes
                0x0000000000000bb2       0x39 ././lvgl/lv_themes/lv_theme_alien.o
 .ARM.attributes
                0x0000000000000beb       0x34 ././lvgl/lv_themes/lv_theme_material.o
 .ARM.attributes
                0x0000000000000c1f       0x39 ././lvgl/lv_themes/lv_theme_templ.o
 .ARM.attributes
                0x0000000000000c58       0x34 ././lvgl/lv_hal/lv_hal_tick.o
 .ARM.attributes
                0x0000000000000c8c       0x34 ././lvgl/lv_hal/lv_hal_indev.o
 .ARM.attributes
                0x0000000000000cc0       0x34 ././lvgl/lv_hal/lv_hal_disp.o
 .ARM.attributes
                0x0000000000000cf4       0x34 ././lvgl/lv_misc/lv_ll.o
 .ARM.attributes
                0x0000000000000d28       0x34 ././lvgl/lv_misc/lv_circ.o
 .ARM.attributes
                0x0000000000000d5c       0x34 ././lvgl/lv_misc/lv_txt.o
 .ARM.attributes
                0x0000000000000d90       0x34 ././lvgl/lv_misc/lv_task.o
 .ARM.attributes
                0x0000000000000dc4       0x34 ././lvgl/lv_misc/lv_math.o
 .ARM.attributes
                0x0000000000000df8       0x34 ././lvgl/lv_misc/lv_fs.o
 .ARM.attributes
                0x0000000000000e2c       0x39 ././lvgl/lv_misc/lv_templ.o
 .ARM.attributes
                0x0000000000000e65       0x34 ././lvgl/lv_misc/lv_trigo.o
 .ARM.attributes
                0x0000000000000e99       0x34 ././lvgl/lv_misc/lv_ufs.o
 .ARM.attributes
                0x0000000000000ecd       0x34 ././lvgl/lv_misc/lv_color.o
 .ARM.attributes
                0x0000000000000f01       0x34 ././lvgl/lv_misc/lv_anim.o
 .ARM.attributes
                0x0000000000000f35       0x34 ././lvgl/lv_misc/lv_mem.o
 .ARM.attributes
                0x0000000000000f69       0x34 ././lvgl/lv_misc/lv_font.o
 .ARM.attributes
                0x0000000000000f9d       0x39 ././lvgl/lv_misc/lv_fonts/lv_font_dejavu_20_cyrillic.o
 .ARM.attributes
                0x0000000000000fd6       0x39 ././lvgl/lv_misc/lv_fonts/lv_font_dejavu_30.o
 .ARM.attributes
                0x000000000000100f       0x39 ././lvgl/lv_misc/lv_fonts/lv_font_dejavu_30_cyrillic.o
 .ARM.attributes
                0x0000000000001048       0x39 ././lvgl/lv_misc/lv_fonts/lv_font_dejavu_10_cyrillic.o
 .ARM.attributes
                0x0000000000001081       0x39 ././lvgl/lv_misc/lv_fonts/lv_font_dejavu_10_latin_sup.o
 .ARM.attributes
                0x00000000000010ba       0x39 ././lvgl/lv_misc/lv_fonts/lv_font_symbol_40.o
 .ARM.attributes
                0x00000000000010f3       0x39 ././lvgl/lv_misc/lv_fonts/lv_font_symbol_30.o
 .ARM.attributes
                0x000000000000112c       0x39 ././lvgl/lv_misc/lv_fonts/lv_font_symbol_20.o
 .ARM.attributes
                0x0000000000001165       0x39 ././lvgl/lv_misc/lv_fonts/lv_font_dejavu_30_latin_sup.o
 .ARM.attributes
                0x000000000000119e       0x39 ././lvgl/lv_misc/lv_fonts/lv_font_dejavu_40_latin_sup.o
 .ARM.attributes
                0x00000000000011d7       0x39 ././lvgl/lv_misc/lv_fonts/lv_font_symbol_10.o
 .ARM.attributes
                0x0000000000001210       0x39 ././lvgl/lv_misc/lv_fonts/lv_font_dejavu_20_latin_sup.o
 .ARM.attributes
                0x0000000000001249       0x39 ././lvgl/lv_misc/lv_fonts/lv_font_dejavu_20.o
 .ARM.attributes
                0x0000000000001282       0x39 ././lvgl/lv_misc/lv_fonts/lv_font_dejavu_40_cyrillic.o
 .ARM.attributes
                0x00000000000012bb       0x39 ././lvgl/lv_misc/lv_fonts/lv_font_dejavu_40.o
 .ARM.attributes
                0x00000000000012f4       0x39 ././lvgl/lv_misc/lv_fonts/lv_font_dejavu_10.o
 .ARM.attributes
                0x000000000000132d       0x34 ././lvgl/lv_misc/lv_area.o
 .ARM.attributes
                0x0000000000001361       0x34 ././mew.o
 .ARM.attributes
                0x0000000000001395       0x34 ././app/pwd_generator/mew_passgen.o
 .ARM.attributes
                0x00000000000013c9       0x34 ././app/pwd_generator/mew_xor_algo.o
 .ARM.attributes
                0x00000000000013fd       0x34 ././app/packet_parser/parser.o
 .ARM.attributes
                0x0000000000001431       0x34 ././debug.o
 .ARM.attributes
                0x0000000000001465       0x25 ././drivers/hw_crypt/P256-cortex-m4-ecdh-speedopt-gcc.o
 .ARM.attributes
                0x000000000000148a       0x39 /home/konata/devel/libopencm3/lib/libopencm3_stm32f4.a(rcc.o)
 .ARM.attributes
                0x00000000000014c3       0x39 /home/konata/devel/libopencm3/lib/libopencm3_stm32f4.a(crc_common_all.o)
 .ARM.attributes
                0x00000000000014fc       0x39 /home/konata/devel/libopencm3/lib/libopencm3_stm32f4.a(dma_common_f24.o)
 .ARM.attributes
                0x0000000000001535       0x39 /home/konata/devel/libopencm3/lib/libopencm3_stm32f4.a(gpio_common_all.o)
 .ARM.attributes
                0x000000000000156e       0x39 /home/konata/devel/libopencm3/lib/libopencm3_stm32f4.a(gpio_common_f0234.o)
 .ARM.attributes
                0x00000000000015a7       0x39 /home/konata/devel/libopencm3/lib/libopencm3_stm32f4.a(i2c_common_v1.o)
 .ARM.attributes
                0x00000000000015e0       0x39 /home/konata/devel/libopencm3/lib/libopencm3_stm32f4.a(spi_common_all.o)
 .ARM.attributes
                0x0000000000001619       0x39 /home/konata/devel/libopencm3/lib/libopencm3_stm32f4.a(spi_common_l1f124.o)
 .ARM.attributes
                0x0000000000001652       0x39 /home/konata/devel/libopencm3/lib/libopencm3_stm32f4.a(usart_common_all.o)
 .ARM.attributes
                0x000000000000168b       0x39 /home/konata/devel/libopencm3/lib/libopencm3_stm32f4.a(usart_common_f124.o)
 .ARM.attributes
                0x00000000000016c4       0x39 /home/konata/devel/libopencm3/lib/libopencm3_stm32f4.a(flash_common_f234.o)
 .ARM.attributes
                0x00000000000016fd       0x39 /home/konata/devel/libopencm3/lib/libopencm3_stm32f4.a(flash_common_f24.o)
 .ARM.attributes
                0x0000000000001736       0x39 /home/konata/devel/libopencm3/lib/libopencm3_stm32f4.a(exti_common_all.o)
 .ARM.attributes
                0x000000000000176f       0x39 /home/konata/devel/libopencm3/lib/libopencm3_stm32f4.a(rcc_common_all.o)
 .ARM.attributes
                0x00000000000017a8       0x39 /home/konata/devel/libopencm3/lib/libopencm3_stm32f4.a(usb.o)
 .ARM.attributes
                0x00000000000017e1       0x39 /home/konata/devel/libopencm3/lib/libopencm3_stm32f4.a(usb_standard.o)
 .ARM.attributes
                0x000000000000181a       0x39 /home/konata/devel/libopencm3/lib/libopencm3_stm32f4.a(usb_control.o)
 .ARM.attributes
                0x0000000000001853       0x39 /home/konata/devel/libopencm3/lib/libopencm3_stm32f4.a(usb_f107.o)
 .ARM.attributes
                0x000000000000188c       0x39 /home/konata/devel/libopencm3/lib/libopencm3_stm32f4.a(vector.o)
 .ARM.attributes
                0x00000000000018c5       0x39 /home/konata/devel/libopencm3/lib/libopencm3_stm32f4.a(systick.o)
 .ARM.attributes
                0x00000000000018fe       0x39 /home/konata/devel/libopencm3/lib/libopencm3_stm32f4.a(nvic.o)
 .ARM.attributes
                0x0000000000001937       0x39 /home/konata/devel/libopencm3/lib/libopencm3_stm32f4.a(pwr.o)
 .ARM.attributes
                0x0000000000001970       0x39 /home/konata/devel/libopencm3/lib/libopencm3_stm32f4.a(usb_fx07_common.o)
 .ARM.attributes
                0x00000000000019a9       0x34 /home/kaori/devel/stm32/gcc-arm-none-eabi-8-2018-q4-major/bin/../lib/gcc/arm-none-eabi/8.2.1/../../../../arm-none-eabi/lib/thumb/v7e-m+fp/hard/libc_nano.a(lib_a-malloc.o)
 .ARM.attributes
                0x00000000000019dd       0x34 /home/kaori/devel/stm32/gcc-arm-none-eabi-8-2018-q4-major/bin/../lib/gcc/arm-none-eabi/8.2.1/../../../../arm-none-eabi/lib/thumb/v7e-m+fp/hard/libc_nano.a(lib_a-memcpy-stub.o)
 .ARM.attributes
                0x0000000000001a11       0x34 /home/kaori/devel/stm32/gcc-arm-none-eabi-8-2018-q4-major/bin/../lib/gcc/arm-none-eabi/8.2.1/../../../../arm-none-eabi/lib/thumb/v7e-m+fp/hard/libc_nano.a(lib_a-memset.o)
 .ARM.attributes
                0x0000000000001a45       0x34 /home/kaori/devel/stm32/gcc-arm-none-eabi-8-2018-q4-major/bin/../lib/gcc/arm-none-eabi/8.2.1/../../../../arm-none-eabi/lib/thumb/v7e-m+fp/hard/libc_nano.a(lib_a-nano-freer.o)
 .ARM.attributes
                0x0000000000001a79       0x34 /home/kaori/devel/stm32/gcc-arm-none-eabi-8-2018-q4-major/bin/../lib/gcc/arm-none-eabi/8.2.1/../../../../arm-none-eabi/lib/thumb/v7e-m+fp/hard/libc_nano.a(lib_a-nano-mallocr.o)
 .ARM.attributes
                0x0000000000001aad       0x34 /home/kaori/devel/stm32/gcc-arm-none-eabi-8-2018-q4-major/bin/../lib/gcc/arm-none-eabi/8.2.1/../../../../arm-none-eabi/lib/thumb/v7e-m+fp/hard/libc_nano.a(lib_a-sbrkr.o)
 .ARM.attributes
                0x0000000000001ae1       0x34 /home/kaori/devel/stm32/gcc-arm-none-eabi-8-2018-q4-major/bin/../lib/gcc/arm-none-eabi/8.2.1/../../../../arm-none-eabi/lib/thumb/v7e-m+fp/hard/libc_nano.a(lib_a-strchr.o)
 .ARM.attributes
                0x0000000000001b15       0x1c /home/kaori/devel/stm32/gcc-arm-none-eabi-8-2018-q4-major/bin/../lib/gcc/arm-none-eabi/8.2.1/../../../../arm-none-eabi/lib/thumb/v7e-m+fp/hard/libc_nano.a(lib_a-strcmp.o)
 .ARM.attributes
                0x0000000000001b31       0x34 /home/kaori/devel/stm32/gcc-arm-none-eabi-8-2018-q4-major/bin/../lib/gcc/arm-none-eabi/8.2.1/../../../../arm-none-eabi/lib/thumb/v7e-m+fp/hard/libc_nano.a(lib_a-strcpy.o)
 .ARM.attributes
                0x0000000000001b65       0x17 /home/kaori/devel/stm32/gcc-arm-none-eabi-8-2018-q4-major/bin/../lib/gcc/arm-none-eabi/8.2.1/../../../../arm-none-eabi/lib/thumb/v7e-m+fp/hard/libc_nano.a(lib_a-strlen.o)
 .ARM.attributes
                0x0000000000001b7c       0x34 /home/kaori/devel/stm32/gcc-arm-none-eabi-8-2018-q4-major/bin/../lib/gcc/arm-none-eabi/8.2.1/../../../../arm-none-eabi/lib/thumb/v7e-m+fp/hard/libc_nano.a(lib_a-strstr.o)
 .ARM.attributes
                0x0000000000001bb0       0x32 /home/kaori/devel/stm32/gcc-arm-none-eabi-8-2018-q4-major/bin/../lib/gcc/arm-none-eabi/8.2.1/../../../../arm-none-eabi/lib/thumb/v7e-m+fp/hard/libc_nano.a(lib_a-impure.o)
 .ARM.attributes
                0x0000000000001be2       0x34 /home/kaori/devel/stm32/gcc-arm-none-eabi-8-2018-q4-major/bin/../lib/gcc/arm-none-eabi/8.2.1/../../../../arm-none-eabi/lib/thumb/v7e-m+fp/hard/libc_nano.a(lib_a-mlock.o)
 .ARM.attributes
                0x0000000000001c16       0x34 /home/kaori/devel/stm32/gcc-arm-none-eabi-8-2018-q4-major/bin/../lib/gcc/arm-none-eabi/8.2.1/../../../../arm-none-eabi/lib/thumb/v7e-m+fp/hard/libc_nano.a(lib_a-reent.o)
 .ARM.attributes
                0x0000000000001c4a       0x34 /home/kaori/devel/stm32/gcc-arm-none-eabi-8-2018-q4-major/bin/../lib/gcc/arm-none-eabi/8.2.1/../../../../arm-none-eabi/lib/thumb/v7e-m+fp/hard/libc_nano.a(lib_a-lock.o)
 .ARM.attributes
                0x0000000000001c7e       0x34 /home/kaori/devel/stm32/gcc-arm-none-eabi-8-2018-q4-major/bin/../lib/gcc/arm-none-eabi/8.2.1/../../../../arm-none-eabi/lib/thumb/v7e-m+fp/hard/libnosys.a(sbrk.o)

.debug_frame    0x0000000000000000     0x73f0
 .debug_frame   0x0000000000000000       0x28 ././ui/ui_lhandlers.o
 .debug_frame   0x0000000000000028       0x68 ././ui/pinpad.o
 .debug_frame   0x0000000000000090       0x74 ././drivers/display/ts_tsc2007.o
 .debug_frame   0x0000000000000104      0x100 ././drivers/display/display.o
 .debug_frame   0x0000000000000204       0xd0 ././drivers/bluetooth/bt_usart.o
 .debug_frame   0x00000000000002d4       0x3c ././drivers/flash/otp_storage.o
 .debug_frame   0x0000000000000310       0x28 ././drivers/system/clock.o
 .debug_frame   0x0000000000000338       0x58 ././drivers/system/systick.o
 .debug_frame   0x0000000000000390       0x5c ././drivers/system/random.o
 .debug_frame   0x00000000000003ec       0x3c ././drivers/system/system.o
 .debug_frame   0x0000000000000428       0x34 ././drivers/spi_flash/w25n01gvzeig.o
 .debug_frame   0x000000000000045c       0x4c ././drivers/spi_flash/flash.o
 .debug_frame   0x00000000000004a8       0x90 ././drivers/duart/duart.o
 .debug_frame   0x0000000000000538       0x90 ././drivers/i2c/i2c.o
 .debug_frame   0x00000000000005c8       0xd8 ././drivers/usb/mew_usb_hid.o
 .debug_frame   0x00000000000006a0       0x68 ././drivers/hw_crypt/aes256.o
 .debug_frame   0x0000000000000708       0x54 ././drivers/hw_crypt/P256-cortex-ecdh.o
 .debug_frame   0x000000000000075c       0x54 ././drivers/hw_crypt/sha2_256.o
 .debug_frame   0x00000000000007b0      0x628 ././lvgl/lv_core/lv_obj.o
 .debug_frame   0x0000000000000dd8      0x1cc ././lvgl/lv_core/lv_group.o
 .debug_frame   0x0000000000000fa4       0x50 ././lvgl/lv_core/lv_vdb.o
 .debug_frame   0x0000000000000ff4       0xd0 ././lvgl/lv_core/lv_style.o
 .debug_frame   0x00000000000010c4      0x208 ././lvgl/lv_core/lv_indev.o
 .debug_frame   0x00000000000012cc      0x170 ././lvgl/lv_core/lv_refr.o
 .debug_frame   0x000000000000143c      0x1bc ././lvgl/lv_objx/lv_kb.o
 .debug_frame   0x00000000000015f8       0xfc ././lvgl/lv_objx/lv_sw.o
 .debug_frame   0x00000000000016f4      0x108 ././lvgl/lv_objx/lv_img.o
 .debug_frame   0x00000000000017fc      0x1ac ././lvgl/lv_objx/lv_slider.o
 .debug_frame   0x00000000000019a8      0x408 ././lvgl/lv_objx/lv_ta.o
 .debug_frame   0x0000000000001db0      0x2d0 ././lvgl/lv_objx/lv_chart.o
 .debug_frame   0x0000000000002080      0x338 ././lvgl/lv_objx/lv_ddlist.o
 .debug_frame   0x00000000000023b8      0x184 ././lvgl/lv_objx/lv_cb.o
 .debug_frame   0x000000000000253c      0x288 ././lvgl/lv_objx/lv_mbox.o
 .debug_frame   0x00000000000027c4      0x1a8 ././lvgl/lv_objx/lv_roller.o
 .debug_frame   0x000000000000296c      0x170 ././lvgl/lv_objx/lv_gauge.o
 .debug_frame   0x0000000000002adc      0x2ac ././lvgl/lv_objx/lv_win.o
 .debug_frame   0x0000000000002d88      0x248 ././lvgl/lv_objx/lv_list.o
 .debug_frame   0x0000000000002fd0      0x368 ././lvgl/lv_objx/lv_tabview.o
 .debug_frame   0x0000000000003338      0x13c ././lvgl/lv_objx/lv_line.o
 .debug_frame   0x0000000000003474      0x198 ././lvgl/lv_objx/lv_btn.o
 .debug_frame   0x000000000000360c      0x400 ././lvgl/lv_objx/lv_label.o
 .debug_frame   0x0000000000003a0c      0x27c ././lvgl/lv_objx/lv_page.o
 .debug_frame   0x0000000000003c88      0x19c ././lvgl/lv_objx/lv_lmeter.o
 .debug_frame   0x0000000000003e24      0x104 ././lvgl/lv_objx/lv_led.o
 .debug_frame   0x0000000000003f28      0x220 ././lvgl/lv_objx/lv_btnm.o
 .debug_frame   0x0000000000004148      0x158 ././lvgl/lv_objx/lv_cont.o
 .debug_frame   0x00000000000042a0      0x19c ././lvgl/lv_objx/lv_bar.o
 .debug_frame   0x000000000000443c      0x140 ././lvgl/lv_draw/lv_draw.o
 .debug_frame   0x000000000000457c       0xc8 ././lvgl/lv_draw/lv_draw_vbasic.o
 .debug_frame   0x0000000000004644       0x30 ././lvgl/lv_themes/lv_theme.o
 .debug_frame   0x0000000000004674       0x50 ././lvgl/lv_themes/lv_theme_default.o
 .debug_frame   0x00000000000046c4       0x50 ././lvgl/lv_themes/lv_theme_material.o
 .debug_frame   0x0000000000004714       0x58 ././lvgl/lv_hal/lv_hal_tick.o
 .debug_frame   0x000000000000476c       0x5c ././lvgl/lv_hal/lv_hal_indev.o
 .debug_frame   0x00000000000047c8       0xd8 ././lvgl/lv_hal/lv_hal_disp.o
 .debug_frame   0x00000000000048a0      0x158 ././lvgl/lv_misc/lv_ll.o
 .debug_frame   0x00000000000049f8       0x5c ././lvgl/lv_misc/lv_circ.o
 .debug_frame   0x0000000000004a54      0x268 ././lvgl/lv_misc/lv_txt.o
 .debug_frame   0x0000000000004cbc      0x128 ././lvgl/lv_misc/lv_task.o
 .debug_frame   0x0000000000004de4       0x3c ././lvgl/lv_misc/lv_math.o
 .debug_frame   0x0000000000004e20      0x240 ././lvgl/lv_misc/lv_fs.o
 .debug_frame   0x0000000000005060       0x20 ././lvgl/lv_misc/lv_trigo.o
 .debug_frame   0x0000000000005080      0x1bc ././lvgl/lv_misc/lv_ufs.o
 .debug_frame   0x000000000000523c       0x60 ././lvgl/lv_misc/lv_color.o
 .debug_frame   0x000000000000529c       0xe0 ././lvgl/lv_misc/lv_anim.o
 .debug_frame   0x000000000000537c       0xa8 ././lvgl/lv_misc/lv_mem.o
 .debug_frame   0x0000000000005424       0xf4 ././lvgl/lv_misc/lv_font.o
 .debug_frame   0x0000000000005518       0xfc ././lvgl/lv_misc/lv_area.o
 .debug_frame   0x0000000000005614       0x30 ././mew.o
 .debug_frame   0x0000000000005644       0x38 ././app/pwd_generator/mew_passgen.o
 .debug_frame   0x000000000000567c       0x88 ././app/pwd_generator/mew_xor_algo.o
 .debug_frame   0x0000000000005704       0xcc ././app/packet_parser/parser.o
 .debug_frame   0x00000000000057d0       0xa0 ././debug.o
 .debug_frame   0x0000000000005870      0x1fc /home/konata/devel/libopencm3/lib/libopencm3_stm32f4.a(rcc.o)
 .debug_frame   0x0000000000005a6c       0x48 /home/konata/devel/libopencm3/lib/libopencm3_stm32f4.a(crc_common_all.o)
 .debug_frame   0x0000000000005ab4      0x314 /home/konata/devel/libopencm3/lib/libopencm3_stm32f4.a(dma_common_f24.o)
 .debug_frame   0x0000000000005dc8       0x80 /home/konata/devel/libopencm3/lib/libopencm3_stm32f4.a(gpio_common_all.o)
 .debug_frame   0x0000000000005e48       0x70 /home/konata/devel/libopencm3/lib/libopencm3_stm32f4.a(gpio_common_f0234.o)
 .debug_frame   0x0000000000005eb8      0x21c /home/konata/devel/libopencm3/lib/libopencm3_stm32f4.a(i2c_common_v1.o)
 .debug_frame   0x00000000000060d4      0x2d0 /home/konata/devel/libopencm3/lib/libopencm3_stm32f4.a(spi_common_all.o)
 .debug_frame   0x00000000000063a4       0x4c /home/konata/devel/libopencm3/lib/libopencm3_stm32f4.a(spi_common_l1f124.o)
 .debug_frame   0x00000000000063f0      0x178 /home/konata/devel/libopencm3/lib/libopencm3_stm32f4.a(usart_common_all.o)
 .debug_frame   0x0000000000006568       0x60 /home/konata/devel/libopencm3/lib/libopencm3_stm32f4.a(usart_common_f124.o)
 .debug_frame   0x00000000000065c8       0x80 /home/konata/devel/libopencm3/lib/libopencm3_stm32f4.a(flash_common_f234.o)
 .debug_frame   0x0000000000006648      0x1ec /home/konata/devel/libopencm3/lib/libopencm3_stm32f4.a(flash_common_f24.o)
 .debug_frame   0x0000000000006834       0x88 /home/konata/devel/libopencm3/lib/libopencm3_stm32f4.a(exti_common_all.o)
 .debug_frame   0x00000000000068bc       0xb0 /home/konata/devel/libopencm3/lib/libopencm3_stm32f4.a(rcc_common_all.o)
 .debug_frame   0x000000000000696c      0x13c /home/konata/devel/libopencm3/lib/libopencm3_stm32f4.a(usb.o)
 .debug_frame   0x0000000000006aa8      0x1ec /home/konata/devel/libopencm3/lib/libopencm3_stm32f4.a(usb_standard.o)
 .debug_frame   0x0000000000006c94      0x154 /home/konata/devel/libopencm3/lib/libopencm3_stm32f4.a(usb_control.o)
 .debug_frame   0x0000000000006de8       0x28 /home/konata/devel/libopencm3/lib/libopencm3_stm32f4.a(usb_f107.o)
 .debug_frame   0x0000000000006e10       0x40 /home/konata/devel/libopencm3/lib/libopencm3_stm32f4.a(vector.o)
 .debug_frame   0x0000000000006e50       0xd8 /home/konata/devel/libopencm3/lib/libopencm3_stm32f4.a(systick.o)
 .debug_frame   0x0000000000006f28       0xa0 /home/konata/devel/libopencm3/lib/libopencm3_stm32f4.a(nvic.o)
 .debug_frame   0x0000000000006fc8       0x20 /home/konata/devel/libopencm3/lib/libopencm3_stm32f4.a(pwr.o)
 .debug_frame   0x0000000000006fe8      0x110 /home/konata/devel/libopencm3/lib/libopencm3_stm32f4.a(usb_fx07_common.o)
 .debug_frame   0x00000000000070f8       0x30 /home/kaori/devel/stm32/gcc-arm-none-eabi-8-2018-q4-major/bin/../lib/gcc/arm-none-eabi/8.2.1/../../../../arm-none-eabi/lib/thumb/v7e-m+fp/hard/libc_nano.a(lib_a-malloc.o)
 .debug_frame   0x0000000000007128       0x28 /home/kaori/devel/stm32/gcc-arm-none-eabi-8-2018-q4-major/bin/../lib/gcc/arm-none-eabi/8.2.1/../../../../arm-none-eabi/lib/thumb/v7e-m+fp/hard/libc_nano.a(lib_a-memcpy-stub.o)
 .debug_frame   0x0000000000007150       0x20 /home/kaori/devel/stm32/gcc-arm-none-eabi-8-2018-q4-major/bin/../lib/gcc/arm-none-eabi/8.2.1/../../../../arm-none-eabi/lib/thumb/v7e-m+fp/hard/libc_nano.a(lib_a-memset.o)
 .debug_frame   0x0000000000007170       0x38 /home/kaori/devel/stm32/gcc-arm-none-eabi-8-2018-q4-major/bin/../lib/gcc/arm-none-eabi/8.2.1/../../../../arm-none-eabi/lib/thumb/v7e-m+fp/hard/libc_nano.a(lib_a-nano-freer.o)
 .debug_frame   0x00000000000071a8       0x30 /home/kaori/devel/stm32/gcc-arm-none-eabi-8-2018-q4-major/bin/../lib/gcc/arm-none-eabi/8.2.1/../../../../arm-none-eabi/lib/thumb/v7e-m+fp/hard/libc_nano.a(lib_a-nano-mallocr.o)
 .debug_frame   0x00000000000071d8       0x2c /home/kaori/devel/stm32/gcc-arm-none-eabi-8-2018-q4-major/bin/../lib/gcc/arm-none-eabi/8.2.1/../../../../arm-none-eabi/lib/thumb/v7e-m+fp/hard/libc_nano.a(lib_a-sbrkr.o)
 .debug_frame   0x0000000000007204       0x20 /home/kaori/devel/stm32/gcc-arm-none-eabi-8-2018-q4-major/bin/../lib/gcc/arm-none-eabi/8.2.1/../../../../arm-none-eabi/lib/thumb/v7e-m+fp/hard/libc_nano.a(lib_a-strchr.o)
 .debug_frame   0x0000000000007224       0x20 /home/kaori/devel/stm32/gcc-arm-none-eabi-8-2018-q4-major/bin/../lib/gcc/arm-none-eabi/8.2.1/../../../../arm-none-eabi/lib/thumb/v7e-m+fp/hard/libc_nano.a(lib_a-strcmp.o)
 .debug_frame   0x0000000000007244       0x20 /home/kaori/devel/stm32/gcc-arm-none-eabi-8-2018-q4-major/bin/../lib/gcc/arm-none-eabi/8.2.1/../../../../arm-none-eabi/lib/thumb/v7e-m+fp/hard/libc_nano.a(lib_a-strcpy.o)
 .debug_frame   0x0000000000007264       0x30 /home/kaori/devel/stm32/gcc-arm-none-eabi-8-2018-q4-major/bin/../lib/gcc/arm-none-eabi/8.2.1/../../../../arm-none-eabi/lib/thumb/v7e-m+fp/hard/libc_nano.a(lib_a-strstr.o)
 .debug_frame   0x0000000000007294       0x30 /home/kaori/devel/stm32/gcc-arm-none-eabi-8-2018-q4-major/bin/../lib/gcc/arm-none-eabi/8.2.1/../../../../arm-none-eabi/lib/thumb/v7e-m+fp/hard/libc_nano.a(lib_a-mlock.o)
 .debug_frame   0x00000000000072c4       0x5c /home/kaori/devel/stm32/gcc-arm-none-eabi-8-2018-q4-major/bin/../lib/gcc/arm-none-eabi/8.2.1/../../../../arm-none-eabi/lib/thumb/v7e-m+fp/hard/libc_nano.a(lib_a-reent.o)
 .debug_frame   0x0000000000007320       0xb0 /home/kaori/devel/stm32/gcc-arm-none-eabi-8-2018-q4-major/bin/../lib/gcc/arm-none-eabi/8.2.1/../../../../arm-none-eabi/lib/thumb/v7e-m+fp/hard/libc_nano.a(lib_a-lock.o)
 .debug_frame   0x00000000000073d0       0x20 /home/kaori/devel/stm32/gcc-arm-none-eabi-8-2018-q4-major/bin/../lib/gcc/arm-none-eabi/8.2.1/../../../../arm-none-eabi/lib/thumb/v7e-m+fp/hard/libnosys.a(sbrk.o)

.debug_loc      0x0000000000000000    0x34b77
 .debug_loc     0x0000000000000000      0x1a1 ././ui/pinpad.o
 .debug_loc     0x00000000000001a1      0x206 ././drivers/display/ts_tsc2007.o
 .debug_loc     0x00000000000003a7      0x31b ././drivers/display/display.o
 .debug_loc     0x00000000000006c2      0x153 ././drivers/bluetooth/bt_usart.o
 .debug_loc     0x0000000000000815      0x24a ././drivers/flash/otp_storage.o
 .debug_loc     0x0000000000000a5f       0x3a ././drivers/system/systick.o
 .debug_loc     0x0000000000000a99       0x59 ././drivers/system/random.o
 .debug_loc     0x0000000000000af2       0xc9 ././drivers/system/system.o
 .debug_loc     0x0000000000000bbb       0x32 ././drivers/spi_flash/w25n01gvzeig.o
 .debug_loc     0x0000000000000bed      0x112 ././drivers/spi_flash/flash.o
 .debug_loc     0x0000000000000cff      0x26d ././drivers/duart/duart.o
 .debug_loc     0x0000000000000f6c      0x23d ././drivers/i2c/i2c.o
 .debug_loc     0x00000000000011a9      0x1b8 ././drivers/usb/mew_usb_hid.o
 .debug_loc     0x0000000000001361      0x130 ././drivers/hw_crypt/aes256.o
 .debug_loc     0x0000000000001491       0x50 ././drivers/hw_crypt/P256-cortex-ecdh.o
 .debug_loc     0x00000000000014e1      0x1f3 ././drivers/hw_crypt/sha2_256.o
 .debug_loc     0x00000000000016d4     0x3745 ././lvgl/lv_core/lv_obj.o
 .debug_loc     0x0000000000004e19      0x71b ././lvgl/lv_core/lv_group.o
 .debug_loc     0x0000000000005534      0x673 ././lvgl/lv_core/lv_style.o
 .debug_loc     0x0000000000005ba7      0x95b ././lvgl/lv_core/lv_indev.o
 .debug_loc     0x0000000000006502      0x9fe ././lvgl/lv_core/lv_refr.o
 .debug_loc     0x0000000000006f00      0xc7c ././lvgl/lv_objx/lv_kb.o
 .debug_loc     0x0000000000007b7c      0x862 ././lvgl/lv_objx/lv_sw.o
 .debug_loc     0x00000000000083de      0x821 ././lvgl/lv_objx/lv_img.o
 .debug_loc     0x0000000000008bff     0x16b5 ././lvgl/lv_objx/lv_slider.o
 .debug_loc     0x000000000000a2b4     0x202e ././lvgl/lv_objx/lv_ta.o
 .debug_loc     0x000000000000c2e2     0x1990 ././lvgl/lv_objx/lv_chart.o
 .debug_loc     0x000000000000dc72     0x1785 ././lvgl/lv_objx/lv_ddlist.o
 .debug_loc     0x000000000000f3f7      0xbf9 ././lvgl/lv_objx/lv_cb.o
 .debug_loc     0x000000000000fff0      0xe66 ././lvgl/lv_objx/lv_mbox.o
 .debug_loc     0x0000000000010e56     0x150f ././lvgl/lv_objx/lv_roller.o
 .debug_loc     0x0000000000012365      0xe9a ././lvgl/lv_objx/lv_gauge.o
 .debug_loc     0x00000000000131ff     0x1026 ././lvgl/lv_objx/lv_win.o
 .debug_loc     0x0000000000014225     0x17a6 ././lvgl/lv_objx/lv_list.o
 .debug_loc     0x00000000000159cb     0x186f ././lvgl/lv_objx/lv_tabview.o
 .debug_loc     0x000000000001723a      0x7cf ././lvgl/lv_objx/lv_line.o
 .debug_loc     0x0000000000017a09      0xd0f ././lvgl/lv_objx/lv_btn.o
 .debug_loc     0x0000000000018718     0x1cec ././lvgl/lv_objx/lv_label.o
 .debug_loc     0x000000000001a404     0x1e71 ././lvgl/lv_objx/lv_page.o
 .debug_loc     0x000000000001c275      0xc5e ././lvgl/lv_objx/lv_lmeter.o
 .debug_loc     0x000000000001ced3      0x6f0 ././lvgl/lv_objx/lv_led.o
 .debug_loc     0x000000000001d5c3     0x1fd8 ././lvgl/lv_objx/lv_btnm.o
 .debug_loc     0x000000000001f59b     0x11dc ././lvgl/lv_objx/lv_cont.o
 .debug_loc     0x0000000000020777      0xb7e ././lvgl/lv_objx/lv_bar.o
 .debug_loc     0x00000000000212f5     0x6a33 ././lvgl/lv_draw/lv_draw.o
 .debug_loc     0x0000000000027d28     0x1879 ././lvgl/lv_draw/lv_draw_vbasic.o
 .debug_loc     0x00000000000295a1       0xf5 ././lvgl/lv_themes/lv_theme_default.o
 .debug_loc     0x0000000000029696       0xc2 ././lvgl/lv_themes/lv_theme_material.o
 .debug_loc     0x0000000000029758       0xa4 ././lvgl/lv_hal/lv_hal_tick.o
 .debug_loc     0x00000000000297fc      0x14f ././lvgl/lv_hal/lv_hal_indev.o
 .debug_loc     0x000000000002994b      0x383 ././lvgl/lv_hal/lv_hal_disp.o
 .debug_loc     0x0000000000029cce      0xeeb ././lvgl/lv_misc/lv_ll.o
 .debug_loc     0x000000000002abb9       0x25 ././lvgl/lv_misc/lv_circ.o
 .debug_loc     0x000000000002abde     0x161a ././lvgl/lv_misc/lv_txt.o
 .debug_loc     0x000000000002c1f8      0x4d3 ././lvgl/lv_misc/lv_task.o
 .debug_loc     0x000000000002c6cb      0x1ab ././lvgl/lv_misc/lv_math.o
 .debug_loc     0x000000000002c876      0xc18 ././lvgl/lv_misc/lv_fs.o
 .debug_loc     0x000000000002d48e       0xf7 ././lvgl/lv_misc/lv_trigo.o
 .debug_loc     0x000000000002d585      0xb87 ././lvgl/lv_misc/lv_ufs.o
 .debug_loc     0x000000000002e10c      0x771 ././lvgl/lv_misc/lv_color.o
 .debug_loc     0x000000000002e87d      0x4e6 ././lvgl/lv_misc/lv_anim.o
 .debug_loc     0x000000000002ed63      0x3ba ././lvgl/lv_misc/lv_mem.o
 .debug_loc     0x000000000002f11d      0x42f ././lvgl/lv_misc/lv_font.o
 .debug_loc     0x000000000002f54c      0x3de ././lvgl/lv_misc/lv_area.o
 .debug_loc     0x000000000002f92a       0xd8 ././mew.o
 .debug_loc     0x000000000002fa02      0x197 ././app/pwd_generator/mew_passgen.o
 .debug_loc     0x000000000002fb99      0x386 ././app/pwd_generator/mew_xor_algo.o
 .debug_loc     0x000000000002ff1f      0x306 ././app/packet_parser/parser.o
 .debug_loc     0x0000000000030225      0x10e ././debug.o
 .debug_loc     0x0000000000030333      0x5e8 /home/konata/devel/libopencm3/lib/libopencm3_stm32f4.a(rcc.o)
 .debug_loc     0x000000000003091b       0x5f /home/konata/devel/libopencm3/lib/libopencm3_stm32f4.a(crc_common_all.o)
 .debug_loc     0x000000000003097a      0xc60 /home/konata/devel/libopencm3/lib/libopencm3_stm32f4.a(dma_common_f24.o)
 .debug_loc     0x00000000000315da       0x97 /home/konata/devel/libopencm3/lib/libopencm3_stm32f4.a(gpio_common_all.o)
 .debug_loc     0x0000000000031671       0xdd /home/konata/devel/libopencm3/lib/libopencm3_stm32f4.a(gpio_common_f0234.o)
 .debug_loc     0x000000000003174e      0x4ad /home/konata/devel/libopencm3/lib/libopencm3_stm32f4.a(i2c_common_v1.o)
 .debug_loc     0x0000000000031bfb      0x176 /home/konata/devel/libopencm3/lib/libopencm3_stm32f4.a(spi_common_all.o)
 .debug_loc     0x0000000000031d71       0xa2 /home/konata/devel/libopencm3/lib/libopencm3_stm32f4.a(spi_common_l1f124.o)
 .debug_loc     0x0000000000031e13      0x1ca /home/konata/devel/libopencm3/lib/libopencm3_stm32f4.a(usart_common_all.o)
 .debug_loc     0x0000000000031fdd       0x63 /home/konata/devel/libopencm3/lib/libopencm3_stm32f4.a(usart_common_f124.o)
 .debug_loc     0x0000000000032040       0x3f /home/konata/devel/libopencm3/lib/libopencm3_stm32f4.a(flash_common_f234.o)
 .debug_loc     0x000000000003207f      0x2cd /home/konata/devel/libopencm3/lib/libopencm3_stm32f4.a(flash_common_f24.o)
 .debug_loc     0x000000000003234c      0x1f2 /home/konata/devel/libopencm3/lib/libopencm3_stm32f4.a(exti_common_all.o)
 .debug_loc     0x000000000003253e      0x108 /home/konata/devel/libopencm3/lib/libopencm3_stm32f4.a(rcc_common_all.o)
 .debug_loc     0x0000000000032646      0x4b1 /home/konata/devel/libopencm3/lib/libopencm3_stm32f4.a(usb.o)
 .debug_loc     0x0000000000032af7     0x116c /home/konata/devel/libopencm3/lib/libopencm3_stm32f4.a(usb_standard.o)
 .debug_loc     0x0000000000033c63      0x58d /home/konata/devel/libopencm3/lib/libopencm3_stm32f4.a(usb_control.o)
 .debug_loc     0x00000000000341f0       0xdf /home/konata/devel/libopencm3/lib/libopencm3_stm32f4.a(vector.o)
 .debug_loc     0x00000000000342cf      0x136 /home/konata/devel/libopencm3/lib/libopencm3_stm32f4.a(systick.o)
 .debug_loc     0x0000000000034405      0x129 /home/konata/devel/libopencm3/lib/libopencm3_stm32f4.a(nvic.o)
 .debug_loc     0x000000000003452e      0x649 /home/konata/devel/libopencm3/lib/libopencm3_stm32f4.a(usb_fx07_common.o)

.debug_macro    0x0000000000000000     0x7039
 .debug_macro   0x0000000000000000      0x106 /home/konata/devel/libopencm3/lib/libopencm3_stm32f4.a(rcc.o)
 .debug_macro   0x0000000000000106      0x88c /home/konata/devel/libopencm3/lib/libopencm3_stm32f4.a(rcc.o)
 .debug_macro   0x0000000000000992       0x22 /home/konata/devel/libopencm3/lib/libopencm3_stm32f4.a(rcc.o)
 .debug_macro   0x00000000000009b4       0x87 /home/konata/devel/libopencm3/lib/libopencm3_stm32f4.a(rcc.o)
 .debug_macro   0x0000000000000a3b       0x44 /home/konata/devel/libopencm3/lib/libopencm3_stm32f4.a(rcc.o)
 .debug_macro   0x0000000000000a7f       0xfd /home/konata/devel/libopencm3/lib/libopencm3_stm32f4.a(rcc.o)
 .debug_macro   0x0000000000000b7c       0x5e /home/konata/devel/libopencm3/lib/libopencm3_stm32f4.a(rcc.o)
 .debug_macro   0x0000000000000bda      0x1df /home/konata/devel/libopencm3/lib/libopencm3_stm32f4.a(rcc.o)
 .debug_macro   0x0000000000000db9       0x22 /home/konata/devel/libopencm3/lib/libopencm3_stm32f4.a(rcc.o)
 .debug_macro   0x0000000000000ddb       0xfa /home/konata/devel/libopencm3/lib/libopencm3_stm32f4.a(rcc.o)
 .debug_macro   0x0000000000000ed5       0x16 /home/konata/devel/libopencm3/lib/libopencm3_stm32f4.a(rcc.o)
 .debug_macro   0x0000000000000eeb       0x58 /home/konata/devel/libopencm3/lib/libopencm3_stm32f4.a(rcc.o)
 .debug_macro   0x0000000000000f43      0x26d /home/konata/devel/libopencm3/lib/libopencm3_stm32f4.a(rcc.o)
 .debug_macro   0x00000000000011b0      0xb3f /home/konata/devel/libopencm3/lib/libopencm3_stm32f4.a(rcc.o)
 .debug_macro   0x0000000000001cef       0x8e /home/konata/devel/libopencm3/lib/libopencm3_stm32f4.a(rcc.o)
 .debug_macro   0x0000000000001d7d       0x22 /home/konata/devel/libopencm3/lib/libopencm3_stm32f4.a(rcc.o)
 .debug_macro   0x0000000000001d9f       0x6a /home/konata/devel/libopencm3/lib/libopencm3_stm32f4.a(rcc.o)
 .debug_macro   0x0000000000001e09       0xf4 /home/konata/devel/libopencm3/lib/libopencm3_stm32f4.a(rcc.o)
 .debug_macro   0x0000000000001efd       0xb4 /home/konata/devel/libopencm3/lib/libopencm3_stm32f4.a(crc_common_all.o)
 .debug_macro   0x0000000000001fb1       0x22 /home/konata/devel/libopencm3/lib/libopencm3_stm32f4.a(crc_common_all.o)
 .debug_macro   0x0000000000001fd3       0xb4 /home/konata/devel/libopencm3/lib/libopencm3_stm32f4.a(dma_common_f24.o)
 .debug_macro   0x0000000000002087      0x86d /home/konata/devel/libopencm3/lib/libopencm3_stm32f4.a(dma_common_f24.o)
 .debug_macro   0x00000000000028f4       0xd2 /home/konata/devel/libopencm3/lib/libopencm3_stm32f4.a(gpio_common_all.o)
 .debug_macro   0x00000000000029c6       0x76 /home/konata/devel/libopencm3/lib/libopencm3_stm32f4.a(gpio_common_all.o)
 .debug_macro   0x0000000000002a3c      0x2e6 /home/konata/devel/libopencm3/lib/libopencm3_stm32f4.a(gpio_common_all.o)
 .debug_macro   0x0000000000002d22      0x14e /home/konata/devel/libopencm3/lib/libopencm3_stm32f4.a(gpio_common_all.o)
 .debug_macro   0x0000000000002e70       0xd2 /home/konata/devel/libopencm3/lib/libopencm3_stm32f4.a(gpio_common_f0234.o)
 .debug_macro   0x0000000000002f42       0xe1 /home/konata/devel/libopencm3/lib/libopencm3_stm32f4.a(i2c_common_v1.o)
 .debug_macro   0x0000000000003023      0x174 /home/konata/devel/libopencm3/lib/libopencm3_stm32f4.a(i2c_common_v1.o)
 .debug_macro   0x0000000000003197      0x327 /home/konata/devel/libopencm3/lib/libopencm3_stm32f4.a(i2c_common_v1.o)
 .debug_macro   0x00000000000034be       0xea /home/konata/devel/libopencm3/lib/libopencm3_stm32f4.a(spi_common_all.o)
 .debug_macro   0x00000000000035a8      0x2eb /home/konata/devel/libopencm3/lib/libopencm3_stm32f4.a(spi_common_all.o)
 .debug_macro   0x0000000000003893       0x16 /home/konata/devel/libopencm3/lib/libopencm3_stm32f4.a(spi_common_all.o)
 .debug_macro   0x00000000000038a9       0x1c /home/konata/devel/libopencm3/lib/libopencm3_stm32f4.a(spi_common_all.o)
 .debug_macro   0x00000000000038c5       0xea /home/konata/devel/libopencm3/lib/libopencm3_stm32f4.a(spi_common_l1f124.o)
 .debug_macro   0x00000000000039af       0xea /home/konata/devel/libopencm3/lib/libopencm3_stm32f4.a(usart_common_all.o)
 .debug_macro   0x0000000000003a99       0x8e /home/konata/devel/libopencm3/lib/libopencm3_stm32f4.a(usart_common_all.o)
 .debug_macro   0x0000000000003b27      0x273 /home/konata/devel/libopencm3/lib/libopencm3_stm32f4.a(usart_common_all.o)
 .debug_macro   0x0000000000003d9a       0xa0 /home/konata/devel/libopencm3/lib/libopencm3_stm32f4.a(usart_common_all.o)
 .debug_macro   0x0000000000003e3a       0xea /home/konata/devel/libopencm3/lib/libopencm3_stm32f4.a(usart_common_f124.o)
 .debug_macro   0x0000000000003f24       0xc3 /home/konata/devel/libopencm3/lib/libopencm3_stm32f4.a(flash_common_f234.o)
 .debug_macro   0x0000000000003fe7       0xc3 /home/konata/devel/libopencm3/lib/libopencm3_stm32f4.a(flash_common_f24.o)
 .debug_macro   0x00000000000040aa      0x100 /home/konata/devel/libopencm3/lib/libopencm3_stm32f4.a(exti_common_all.o)
 .debug_macro   0x00000000000041aa      0x112 /home/konata/devel/libopencm3/lib/libopencm3_stm32f4.a(exti_common_all.o)
 .debug_macro   0x00000000000042bc       0x3a /home/konata/devel/libopencm3/lib/libopencm3_stm32f4.a(exti_common_all.o)
 .debug_macro   0x00000000000042f6       0xcf /home/konata/devel/libopencm3/lib/libopencm3_stm32f4.a(rcc_common_all.o)
 .debug_macro   0x00000000000043c5      0x154 /home/konata/devel/libopencm3/lib/libopencm3_stm32f4.a(usb.o)
 .debug_macro   0x0000000000004519       0x4c /home/konata/devel/libopencm3/lib/libopencm3_stm32f4.a(usb.o)
 .debug_macro   0x0000000000004565       0x8d /home/konata/devel/libopencm3/lib/libopencm3_stm32f4.a(usb.o)
 .debug_macro   0x00000000000045f2       0x35 /home/konata/devel/libopencm3/lib/libopencm3_stm32f4.a(usb.o)
 .debug_macro   0x0000000000004627       0x9c /home/konata/devel/libopencm3/lib/libopencm3_stm32f4.a(usb.o)
 .debug_macro   0x00000000000046c3       0x4a /home/konata/devel/libopencm3/lib/libopencm3_stm32f4.a(usb.o)
 .debug_macro   0x000000000000470d       0x52 /home/konata/devel/libopencm3/lib/libopencm3_stm32f4.a(usb.o)
 .debug_macro   0x000000000000475f       0x1f /home/konata/devel/libopencm3/lib/libopencm3_stm32f4.a(usb.o)
 .debug_macro   0x000000000000477e       0x43 /home/konata/devel/libopencm3/lib/libopencm3_stm32f4.a(usb.o)
 .debug_macro   0x00000000000047c1       0x20 /home/konata/devel/libopencm3/lib/libopencm3_stm32f4.a(usb.o)
 .debug_macro   0x00000000000047e1      0x187 /home/konata/devel/libopencm3/lib/libopencm3_stm32f4.a(usb.o)
 .debug_macro   0x0000000000004968      0x30d /home/konata/devel/libopencm3/lib/libopencm3_stm32f4.a(usb.o)
 .debug_macro   0x0000000000004c75       0x10 /home/konata/devel/libopencm3/lib/libopencm3_stm32f4.a(usb.o)
 .debug_macro   0x0000000000004c85       0x35 /home/konata/devel/libopencm3/lib/libopencm3_stm32f4.a(usb.o)
 .debug_macro   0x0000000000004cba      0x196 /home/konata/devel/libopencm3/lib/libopencm3_stm32f4.a(usb.o)
 .debug_macro   0x0000000000004e50       0x10 /home/konata/devel/libopencm3/lib/libopencm3_stm32f4.a(usb.o)
 .debug_macro   0x0000000000004e60       0x1c /home/konata/devel/libopencm3/lib/libopencm3_stm32f4.a(usb.o)
 .debug_macro   0x0000000000004e7c      0x154 /home/konata/devel/libopencm3/lib/libopencm3_stm32f4.a(usb_standard.o)
 .debug_macro   0x0000000000004fd0      0x161 /home/konata/devel/libopencm3/lib/libopencm3_stm32f4.a(usb_control.o)
 .debug_macro   0x0000000000005131       0x16 /home/konata/devel/libopencm3/lib/libopencm3_stm32f4.a(usb_control.o)
 .debug_macro   0x0000000000005147      0x10e /home/konata/devel/libopencm3/lib/libopencm3_stm32f4.a(usb_control.o)
 .debug_macro   0x0000000000005255       0x8d /home/konata/devel/libopencm3/lib/libopencm3_stm32f4.a(usb_control.o)
 .debug_macro   0x00000000000052e2       0x16 /home/konata/devel/libopencm3/lib/libopencm3_stm32f4.a(usb_control.o)
 .debug_macro   0x00000000000052f8       0x29 /home/konata/devel/libopencm3/lib/libopencm3_stm32f4.a(usb_control.o)
 .debug_macro   0x0000000000005321      0x1b9 /home/konata/devel/libopencm3/lib/libopencm3_stm32f4.a(usb_f107.o)
 .debug_macro   0x00000000000054da       0x3a /home/konata/devel/libopencm3/lib/libopencm3_stm32f4.a(usb_f107.o)
 .debug_macro   0x0000000000005514      0x8d7 /home/konata/devel/libopencm3/lib/libopencm3_stm32f4.a(usb_f107.o)
 .debug_macro   0x0000000000005deb      0x130 /home/konata/devel/libopencm3/lib/libopencm3_stm32f4.a(usb_f107.o)
 .debug_macro   0x0000000000005f1b      0x19c /home/konata/devel/libopencm3/lib/libopencm3_stm32f4.a(usb_f107.o)
 .debug_macro   0x00000000000060b7       0xd4 /home/konata/devel/libopencm3/lib/libopencm3_stm32f4.a(vector.o)
 .debug_macro   0x000000000000618b      0x3a1 /home/konata/devel/libopencm3/lib/libopencm3_stm32f4.a(vector.o)
 .debug_macro   0x000000000000652c       0x6a /home/konata/devel/libopencm3/lib/libopencm3_stm32f4.a(vector.o)
 .debug_macro   0x0000000000006596      0x22c /home/konata/devel/libopencm3/lib/libopencm3_stm32f4.a(vector.o)
 .debug_macro   0x00000000000067c2       0x93 /home/konata/devel/libopencm3/lib/libopencm3_stm32f4.a(systick.o)
 .debug_macro   0x0000000000006855       0x64 /home/konata/devel/libopencm3/lib/libopencm3_stm32f4.a(systick.o)
 .debug_macro   0x00000000000068b9       0xb4 /home/konata/devel/libopencm3/lib/libopencm3_stm32f4.a(nvic.o)
 .debug_macro   0x000000000000696d       0x64 /home/konata/devel/libopencm3/lib/libopencm3_stm32f4.a(nvic.o)
 .debug_macro   0x00000000000069d1      0x1b0 /home/konata/devel/libopencm3/lib/libopencm3_stm32f4.a(nvic.o)
 .debug_macro   0x0000000000006b81       0xb9 /home/konata/devel/libopencm3/lib/libopencm3_stm32f4.a(pwr.o)
 .debug_macro   0x0000000000006c3a      0x1b0 /home/konata/devel/libopencm3/lib/libopencm3_stm32f4.a(usb_fx07_common.o)
 .debug_macro   0x0000000000006dea      0x24f /home/konata/devel/libopencm3/lib/libopencm3_stm32f4.a(usb_fx07_common.o)
